
Thermometr(coursework).elf:     file format elf32-avr

Sections:
Idx Name          Size      VMA       LMA       File off  Algn
  0 .text         000016f0  00000000  00000000  00000094  2**1
                  CONTENTS, ALLOC, LOAD, READONLY, CODE
  1 .data         0000000c  00800060  000016f0  00001784  2**0
                  CONTENTS, ALLOC, LOAD, DATA
  2 .bss          00000052  0080006c  0080006c  00001790  2**0
                  ALLOC
  3 .comment      00000030  00000000  00000000  00001790  2**0
                  CONTENTS, READONLY
  4 .note.gnu.avr.deviceinfo 0000003c  00000000  00000000  000017c0  2**2
                  CONTENTS, READONLY
  5 .debug_aranges 000001e8  00000000  00000000  000017fc  2**0
                  CONTENTS, READONLY, DEBUGGING
  6 .debug_info   00003681  00000000  00000000  000019e4  2**0
                  CONTENTS, READONLY, DEBUGGING
  7 .debug_abbrev 00000b1b  00000000  00000000  00005065  2**0
                  CONTENTS, READONLY, DEBUGGING
  8 .debug_line   00001839  00000000  00000000  00005b80  2**0
                  CONTENTS, READONLY, DEBUGGING
  9 .debug_frame  000008ec  00000000  00000000  000073bc  2**2
                  CONTENTS, READONLY, DEBUGGING
 10 .debug_str    00000793  00000000  00000000  00007ca8  2**0
                  CONTENTS, READONLY, DEBUGGING
 11 .debug_loc    0000349e  00000000  00000000  0000843b  2**0
                  CONTENTS, READONLY, DEBUGGING
 12 .debug_ranges 000001d0  00000000  00000000  0000b8d9  2**0
                  CONTENTS, READONLY, DEBUGGING

Disassembly of section .text:

00000000 <__vectors>:
       0:	0c 94 e4 04 	jmp	0x9c8	; 0x9c8 <__ctors_end>
       4:	0c 94 01 05 	jmp	0xa02	; 0xa02 <__bad_interrupt>
       8:	0c 94 01 05 	jmp	0xa02	; 0xa02 <__bad_interrupt>
       c:	0c 94 01 05 	jmp	0xa02	; 0xa02 <__bad_interrupt>
      10:	0c 94 ab 09 	jmp	0x1356	; 0x1356 <__vector_4>
      14:	0c 94 01 05 	jmp	0xa02	; 0xa02 <__bad_interrupt>
      18:	0c 94 01 05 	jmp	0xa02	; 0xa02 <__bad_interrupt>
      1c:	0c 94 01 05 	jmp	0xa02	; 0xa02 <__bad_interrupt>
      20:	0c 94 01 05 	jmp	0xa02	; 0xa02 <__bad_interrupt>
      24:	0c 94 01 05 	jmp	0xa02	; 0xa02 <__bad_interrupt>
      28:	0c 94 01 05 	jmp	0xa02	; 0xa02 <__bad_interrupt>
      2c:	0c 94 33 0b 	jmp	0x1666	; 0x1666 <__vector_11>
      30:	0c 94 01 05 	jmp	0xa02	; 0xa02 <__bad_interrupt>
      34:	0c 94 cf 0a 	jmp	0x159e	; 0x159e <__vector_13>
      38:	0c 94 0a 0b 	jmp	0x1614	; 0x1614 <__vector_14>
      3c:	0c 94 01 05 	jmp	0xa02	; 0xa02 <__bad_interrupt>
      40:	0c 94 01 05 	jmp	0xa02	; 0xa02 <__bad_interrupt>
      44:	0c 94 01 05 	jmp	0xa02	; 0xa02 <__bad_interrupt>
      48:	0c 94 01 05 	jmp	0xa02	; 0xa02 <__bad_interrupt>
      4c:	0c 94 01 05 	jmp	0xa02	; 0xa02 <__bad_interrupt>
      50:	0c 94 01 05 	jmp	0xa02	; 0xa02 <__bad_interrupt>

00000054 <__trampolines_end>:
      54:	c1 c1       	rjmp	.+898    	; 0x3d8 <font+0x210>
      56:	c1 c1       	rjmp	.+898    	; 0x3da <font+0x212>
      58:	00 00       	nop
      5a:	c2 c2       	rjmp	.+1412   	; 0x5e0 <__EEPROM_REGION_LENGTH__+0x1e0>
      5c:	fe fe       	.word	0xfefe	; ????
      5e:	01 00       	.word	0x0001	; ????
      60:	c3 c3       	rjmp	.+1926   	; 0x7e8 <__EEPROM_REGION_LENGTH__+0x3e8>
      62:	1f 1f       	adc	r17, r31
      64:	01 00       	.word	0x0001	; ????
      66:	c4 c4       	rjmp	.+2440   	; 0x9f0 <__do_clear_bss+0x6>
      68:	fc fc       	.word	0xfcfc	; ????
      6a:	01 00       	.word	0x0001	; ????
      6c:	c5 c5       	rjmp	.+2954   	; 0xbf8 <putItSz+0x118>
      6e:	c5 c5       	rjmp	.+2954   	; 0xbfa <putItSz+0x11a>
      70:	01 01       	movw	r0, r2
      72:	c6 bd       	out	0x26, r28	; 38
      74:	bf be       	out	0x3f, r11	; 63
      76:	01 01       	movw	r0, r2
      78:	c7 c7       	rjmp	.+3982   	; 0x1008 <timer_init+0x14>
      7a:	c0 c0       	rjmp	.+384    	; 0x1fc <font+0x34>
      7c:	01 00       	.word	0x0001	; ????
      7e:	c8 82       	st	Y, r12
      80:	84 83       	std	Z+4, r24	; 0x04
      82:	01 01       	movw	r0, r2
      84:	c9 c9       	rjmp	.-3182   	; 0xfffff418 <__eeprom_end+0xff7ef418>
      86:	fd fd       	.word	0xfdfd	; ????
      88:	01 00       	.word	0x0001	; ????
      8a:	ca 85       	ldd	r28, Y+10	; 0x0a
      8c:	87 86       	std	Z+15, r8	; 0x0f
      8e:	01 01       	movw	r0, r2
      90:	cb 88       	ldd	r12, Y+19	; 0x13
      92:	8a 89       	ldd	r24, Y+18	; 0x12
      94:	01 01       	movw	r0, r2
      96:	cc 8b       	std	Y+20, r28	; 0x14
      98:	cc 8b       	std	Y+20, r28	; 0x14
      9a:	01 01       	movw	r0, r2
      9c:	cd 8c       	ldd	r12, Y+29	; 0x1d
      9e:	cd 8c       	ldd	r12, Y+29	; 0x1d
      a0:	01 01       	movw	r0, r2
      a2:	ce 11       	cpse	r28, r14
      a4:	ce 11       	cpse	r28, r14
      a6:	01 01       	movw	r0, r2
      a8:	cf cf       	rjmp	.-98     	; 0x48 <__SREG__+0x9>
      aa:	13 13       	cpse	r17, r19
      ac:	01 00       	.word	0x0001	; ????
      ae:	d0 d0       	rcall	.+416    	; 0x250 <font+0x88>
      b0:	8f 8f       	std	Y+31, r24	; 0x1f
      b2:	01 00       	.word	0x0001	; ????
      b4:	d1 d1       	rcall	.+930    	; 0x458 <__EEPROM_REGION_LENGTH__+0x58>
      b6:	1b 1b       	sub	r17, r27
      b8:	01 00       	.word	0x0001	; ????
      ba:	d2 d2       	rcall	.+1444   	; 0x660 <__EEPROM_REGION_LENGTH__+0x260>
      bc:	91 91       	ld	r25, Z+
      be:	01 00       	.word	0x0001	; ????
      c0:	d3 92       	.word	0x92d3	; ????
      c2:	94 93       	xch	Z, r25
      c4:	01 01       	movw	r0, r2
      c6:	d4 95       	.word	0x95d4	; ????
      c8:	97 96       	adiw	r26, 0x27	; 39
      ca:	01 01       	movw	r0, r2
      cc:	d5 17       	cp	r29, r21
      ce:	9a 99       	sbic	0x13, 2	; 19
      d0:	01 01       	movw	r0, r2
      d2:	d6 9b       	sbis	0x1a, 6	; 26
      d4:	9d 9c       	mul	r9, r13
      d6:	01 01       	movw	r0, r2
      d8:	d7 d7       	rcall	.+4014   	; 0x1088 <display_result+0x74>
      da:	d7 d7       	rcall	.+4014   	; 0x108a <display_result+0x76>
      dc:	00 00       	nop
      de:	d8 d8       	rcall	.-3664   	; 0xfffff290 <__eeprom_end+0xff7ef290>
      e0:	9e 9e       	mul	r9, r30
      e2:	01 01       	movw	r0, r2
      e4:	d9 d9       	rcall	.-3150   	; 0xfffff498 <__eeprom_end+0xff7ef498>
      e6:	9f 9f       	mul	r25, r31
      e8:	01 01       	movw	r0, r2
      ea:	da a0       	ldd	r13, Y+34	; 0x22
      ec:	a2 a1       	ldd	r26, Z+34	; 0x22
      ee:	01 01       	movw	r0, r2
      f0:	db a3       	std	Y+35, r29	; 0x23
      f2:	a5 a4       	ldd	r10, Z+45	; 0x2d
      f4:	01 01       	movw	r0, r2
      f6:	dc dc       	rcall	.-1608   	; 0xfffffab0 <__eeprom_end+0xff7efab0>
      f8:	dc dc       	rcall	.-1608   	; 0xfffffab2 <__eeprom_end+0xff7efab2>
      fa:	00 00       	nop
      fc:	dd a6       	std	Y+45, r13	; 0x2d
      fe:	a8 a7       	std	Y+40, r26	; 0x28
     100:	01 01       	movw	r0, r2
     102:	de a9       	ldd	r29, Y+54	; 0x36
     104:	ab aa       	std	Y+51, r10	; 0x33
     106:	01 01       	movw	r0, r2
     108:	df ac       	ldd	r13, Y+63	; 0x3f
     10a:	ae ad       	ldd	r26, Y+62	; 0x3e
     10c:	01 01       	movw	r0, r2
     10e:	e0 e0       	ldi	r30, 0x00	; 0
     110:	e0 e0       	ldi	r30, 0x00	; 0
     112:	00 00       	nop
     114:	e1 af       	std	Z+57, r30	; 0x39
     116:	b1 b0       	in	r11, 0x01	; 1
     118:	01 01       	movw	r0, r2
     11a:	e2 e2       	ldi	r30, 0x22	; 34
     11c:	e2 e2       	ldi	r30, 0x22	; 34
     11e:	00 00       	nop
     120:	e3 b2       	in	r14, 0x13	; 19
     122:	b4 b3       	in	r27, 0x14	; 20
     124:	01 01       	movw	r0, r2
     126:	e4 b5       	in	r30, 0x24	; 36
     128:	b7 b6       	in	r11, 0x37	; 55
     12a:	01 01       	movw	r0, r2
     12c:	e5 b8       	out	0x05, r14	; 5
     12e:	ba b9       	out	0x0a, r27	; 10
     130:	01 01       	movw	r0, r2
     132:	e6 e6       	ldi	r30, 0x66	; 102
     134:	bc bc       	out	0x2c, r11	; 44
     136:	01 00       	.word	0x0001	; ????
     138:	e7 e7       	ldi	r30, 0x77	; 119
     13a:	e7 e7       	ldi	r30, 0x77	; 119
     13c:	00 00       	nop
     13e:	e8 e8       	ldi	r30, 0x88	; 136
     140:	e8 e8       	ldi	r30, 0x88	; 136
     142:	00 00       	nop
     144:	e9 e9       	ldi	r30, 0x99	; 153
     146:	e9 e9       	ldi	r30, 0x99	; 153
     148:	00 00       	nop
     14a:	ea ea       	ldi	r30, 0xAA	; 170
     14c:	ea ea       	ldi	r30, 0xAA	; 170
     14e:	00 00       	nop
     150:	eb eb       	ldi	r30, 0xBB	; 187
     152:	eb eb       	ldi	r30, 0xBB	; 187
     154:	00 00       	nop
     156:	ec bd       	out	0x2c, r30	; 44
     158:	bf be       	out	0x3f, r11	; 63
     15a:	01 01       	movw	r0, r2
     15c:	ed bd       	out	0x2d, r30	; 45
     15e:	bf be       	out	0x3f, r11	; 63
     160:	01 01       	movw	r0, r2
     162:	ee ee       	ldi	r30, 0xEE	; 238
     164:	ee ee       	ldi	r30, 0xEE	; 238
     166:	00 00       	nop
     168:	ef ef       	ldi	r30, 0xFF	; 255
     16a:	ef ef       	ldi	r30, 0xFF	; 255
     16c:	00 00       	nop
     16e:	f0 f0       	brcs	.+60     	; 0x1ac <__trampolines_end+0x158>
     170:	f0 f0       	brcs	.+60     	; 0x1ae <__trampolines_end+0x15a>
     172:	00 00       	nop
     174:	f1 f1       	breq	.+124    	; 0x1f2 <font+0x2a>
     176:	f1 f1       	breq	.+124    	; 0x1f4 <font+0x2c>
     178:	00 00       	nop
     17a:	f2 f2       	brmi	.-68     	; 0x138 <__trampolines_end+0xe4>
     17c:	f2 f2       	brmi	.-68     	; 0x13a <__trampolines_end+0xe6>
     17e:	00 00       	nop
     180:	f3 f3       	brvs	.-4      	; 0x17e <__trampolines_end+0x12a>
     182:	f3 f3       	brvs	.-4      	; 0x180 <__trampolines_end+0x12c>
     184:	00 00       	nop
     186:	f5 f5       	brhc	.+124    	; 0x204 <font+0x3c>
     188:	f5 f5       	brhc	.+124    	; 0x206 <font+0x3e>
     18a:	00 00       	nop
     18c:	f6 f6       	brtc	.-68     	; 0x14a <__trampolines_end+0xf6>
     18e:	f6 f6       	brtc	.-68     	; 0x14c <__trampolines_end+0xf8>
     190:	00 00       	nop
     192:	f7 f7       	brid	.-4      	; 0x190 <__trampolines_end+0x13c>
     194:	f7 f7       	brid	.-4      	; 0x192 <__trampolines_end+0x13e>
     196:	00 00       	nop
     198:	f8 f8       	.word	0xf8f8	; ????
     19a:	f8 f8       	.word	0xf8f8	; ????
     19c:	00 00       	nop
     19e:	fb f9       	.word	0xf9fb	; ????
     1a0:	fb fa       	.word	0xfafb	; ????
     1a2:	01 01       	movw	r0, r2
     1a4:	bb bb       	out	0x1b, r27	; 27
     1a6:	f4 f4       	brge	.+60     	; 0x1e4 <font+0x1c>
     1a8:	01 00       	.word	0x0001	; ????
     1aa:	81 1c       	adc	r8, r1
     1ac:	1e 1d       	adc	r17, r14
     1ae:	01 01       	movw	r0, r2
     1b0:	90 18       	sub	r9, r0
     1b2:	1a 19       	sub	r17, r10
     1b4:	01 01       	movw	r0, r2
     1b6:	98 14       	cp	r9, r8
     1b8:	16 15       	cp	r17, r6
     1ba:	01 01       	movw	r0, r2
     1bc:	8e 8e       	std	Y+30, r8	; 0x1e
     1be:	12 12       	cpse	r1, r18
     1c0:	01 00       	.word	0x0001	; ????
     1c2:	8d 10       	cpse	r8, r13
     1c4:	8d 10       	cpse	r8, r13
     1c6:	01 01       	movw	r0, r2

000001c8 <font>:
	...
     248:	20 20 28 28 68 b0 60 20 20 20 28 2a 28 30 20 20       ((h.`   (*(0  
     258:	00 80 80 44 32 24 20 20 00 24 24 24 38 20 20 20     ...D2$  .$$$8   
     268:	20 20 20 20 24 2a 11 00 20 20 20 24 2a 11 20 20         $*..   $*.  
     278:	30 20 20 20 24 2a 11 20 20 20 30 20 30 28 28 18     0   $*.   0 0((.
     288:	20 24 22 21 24 2a 11 00 24 22 21 24 2a 11 20 20      $"!$*..$"!$*.  
     298:	30 24 22 21 24 2a 11 20 00 80 80 40 30 20 20 20     0$"!$*. ...@0   
     2a8:	20 20 20 60 a0 60 28 30 20 20 20 60 b0 60 20 20        `.`(0   `.`  
     2b8:	00 30 28 60 a0 60 30 20 00 04 06 1d 25 24 20 20     .0(`.`0 ....%$  
	...
     2d0:	00 00 4f 00 00 00 00 00 00 07 00 07 00 00 00 00     ..O.............
     2e0:	00 14 7f 14 7f 14 00 00 00 24 2a 7f 2a 12 00 00     .........$*.*...
     2f0:	00 23 13 08 64 62 00 00 00 36 49 55 22 40 00 00     .#..db...6IU"@..
     300:	00 00 05 03 00 00 00 00 00 1c 22 41 00 00 00 00     .........."A....
     310:	00 41 22 1c 00 00 00 00 00 14 08 3e 08 14 00 00     .A"........>....
     320:	00 08 08 3e 08 08 00 00 00 00 28 18 00 00 00 00     ...>......(.....
     330:	00 08 08 08 08 08 08 00 00 30 30 00 00 00 00 00     .........00.....
     340:	00 20 10 08 04 02 00 00 00 3e 51 49 45 3e 00 00     . .......>QIE>..
     350:	00 00 42 7f 40 00 00 00 00 42 61 51 49 46 00 00     ..B.@....BaQIF..
     360:	00 21 41 45 4b 31 00 00 00 18 14 12 7f 10 00 00     .!AEK1..........
     370:	00 00 27 45 45 45 39 00 00 3c 4a 49 49 30 00 00     ..'EEE9..<JII0..
     380:	00 01 71 09 05 03 00 00 00 36 49 49 49 36 00 00     ..q......6III6..
     390:	00 06 49 49 29 1e 00 00 00 00 36 36 00 00 00 00     ..II).....66....
     3a0:	00 00 56 36 00 00 00 00 00 08 14 22 41 00 00 00     ..V6......."A...
     3b0:	00 24 24 24 24 24 00 00 00 00 41 22 14 08 00 00     .$$$$$....A"....
     3c0:	00 02 01 51 09 06 00 00 00 32 49 79 41 3e 00 00     ...Q.....2IyA>..
     3d0:	00 7e 11 11 11 7e 00 00 00 7f 49 49 49 36 00 00     .~...~....III6..
     3e0:	00 3e 41 41 41 22 00 00 00 7f 41 41 22 1c 00 00     .>AAA"....AA"...
     3f0:	00 7f 49 49 49 41 00 00 00 7f 09 09 09 01 00 00     ..IIIA..........
     400:	00 3e 41 49 49 3a 00 00 00 7f 08 08 08 7f 00 00     .>AII:..........
     410:	00 00 41 7f 41 00 00 00 00 20 40 41 3f 01 00 00     ..A.A.... @A?...
     420:	00 7f 08 14 22 41 00 00 00 7f 40 40 40 40 00 00     ...."A....@@@@..
     430:	00 7f 02 0c 02 7f 00 00 00 7f 04 08 10 7f 00 00     ................
     440:	00 3e 41 41 41 3e 00 00 00 7f 09 09 09 06 00 00     .>AAA>..........
     450:	3e 41 51 21 5e 00 00 00 00 7f 09 19 29 46 00 00     >AQ!^.......)F..
     460:	00 46 49 49 49 31 00 00 00 01 01 7f 01 01 00 00     .FIII1..........
     470:	00 3f 40 40 40 3f 00 00 00 1f 20 40 20 1f 00 00     .?@@@?.... @ ...
     480:	00 3f 40 60 40 3f 00 00 00 63 14 08 14 63 00 00     .?@`@?...c...c..
     490:	00 07 08 70 08 07 00 00 00 61 51 49 45 43 00 00     ...p.....aQIEC..
     4a0:	00 7f 41 41 00 00 00 00 00 15 16 7c 16 15 00 00     ..AA.......|....
     4b0:	00 41 41 7f 00 00 00 00 00 04 02 01 02 04 00 00     .AA.............
     4c0:	00 40 40 40 40 40 00 00 00 01 02 04 00 00 00 00     .@@@@@..........
     4d0:	00 20 54 54 54 78 00 00 00 7f 44 44 44 38 00 00     . TTTx....DDD8..
     4e0:	00 38 44 44 44 00 00 00 00 38 44 44 48 7f 00 00     .8DDD....8DDH...
     4f0:	00 38 54 54 54 18 00 00 00 10 7e 11 01 02 00 00     .8TTT.....~.....
     500:	00 0c 52 52 52 3e 00 00 00 7f 08 04 04 78 00 00     ..RRR>.......x..
     510:	00 00 44 7d 40 00 00 00 00 20 40 40 3d 00 00 00     ..D}@.... @@=...
     520:	00 7f 10 28 44 00 00 00 00 00 41 7f 40 00 00 00     ...(D.....A.@...
     530:	00 7c 04 18 04 78 00 00 00 7c 08 04 04 78 00 00     .|...x...|...x..
     540:	00 38 44 44 44 38 00 00 00 7c 14 14 14 08 00 00     .8DDD8...|......
     550:	00 08 14 14 18 7c 00 00 00 7c 08 04 04 08 00 00     .....|...|......
     560:	00 48 54 54 54 20 00 00 00 04 3f 44 40 20 00 00     .HTTT ....?D@ ..
     570:	00 3c 40 40 20 7c 00 00 00 1c 20 40 20 1c 00 00     .<@@ |.... @ ...
     580:	00 1e 20 10 20 1e 00 00 00 22 14 08 14 22 00 00     .. . ...."..."..
     590:	00 06 48 48 48 3e 00 00 00 44 64 54 4c 44 00 00     ..HHH>...DdTLD..
     5a0:	00 08 36 41 00 00 00 00 00 00 00 7f 00 00 00 00     ..6A............
     5b0:	00 41 36 08 00 00 00 00 00 08 08 2a 1c 08 00 00     .A6........*....
     5c0:	00 08 1c 2a 08 08 00 00 00 3c 42 41 42 3c 00 00     ...*.....<BAB<..
     5d0:	00 30 28 60 a0 60 28 30 20 20 20 20 a0 20 28 30     .0(`.`(0    . (0
     5e0:	20 20 20 20 b0 20 20 20 00 30 28 20 a0 20 30 20         .   .0( . 0 
     5f0:	20 20 20 22 20 22 28 30 20 20 20 22 30 22 20 20        " "(0   "0"  
     600:	00 30 28 22 20 22 30 20 20 20 20 22 21 22 28 30     .0(" "0    "!"(0
     610:	20 20 20 22 31 22 20 20 00 30 28 22 21 22 30 20        "1"  .0("!"0 
     620:	20 20 28 28 28 b0 20 20 20 20 28 28 28 30 20 20       (((.    (((0  
     630:	00 c0 a8 28 68 b0 60 20 00 00 80 80 44 32 04 00     ...(h.` ....D2..
     640:	00 24 25 24 38 20 20 20 30 24 22 21 24 2a 11 00     .$%$8   0$"!$*..
     650:	00 80 80 40 34 20 20 20 20 20 20 38 20 38 20 18     ...@4      8 8 .
     660:	20 20 38 20 38 20 38 20 60 80 80 78 20 38 20 18       8 8 8 `..x 8 .
     670:	20 20 20 38 22 39 22 18 20 20 38 22 39 22 38 20        8"9".  8"9"8 
     680:	60 80 80 78 22 39 22 18 30 20 20 20 24 2a 11 00     `..x"9".0   $*..
     690:	20 30 20 30 28 28 38 20 60 80 80 60 30 28 28 38      0 0((8 `..`0((8
     6a0:	20 20 30 20 30 28 2a 18 20 30 20 30 28 2a 38 20       0 0(*. 0 0(*8 
     6b0:	60 80 80 60 30 28 2a 38 20 20 3e 30 28 28 38 20     `..`0(*8  >0((8 
     6c0:	20 20 3e 30 28 2a 38 20 20 20 20 20 30 28 28 00       >0(*8     0((.
     6d0:	20 20 20 30 28 28 20 20 00 40 a0 b0 28 28 20 20        0((  .@..((  
     6e0:	20 20 20 20 30 28 2a 00 20 20 20 30 28 2a 20 20         0(*.   0(*  
     6f0:	00 40 a0 b0 28 2a 20 20 20 20 20 20 30 28 2a 30     .@..(*      0(*0
     700:	20 20 30 28 2a 30 20 20 00 18 20 20 30 28 2a 30       0(*0  ..  0(*0
     710:	20 20 20 20 30 2a 28 32 20 20 30 2a 28 32 20 20         0*(2  0*(2  
     720:	60 80 80 b2 a8 7a 20 20 22 25 25 25 25 25 25 19     `....z  "%%%%%%.
     730:	20 20 20 1c 22 21 20 20 30 28 2c 2a 20 3f 20 20        ."!  0(,* ?  
     740:	20 20 20 20 20 20 1f 00 00 00 00 00 00 07 05 07           ..........
     750:	00 30 40 40 3f 20 20 20 20 20 20 20 30 48 48 30     .0@@?       0HH0
     760:	20 20 30 48 48 30 20 20 80 40 30 48 48 30 20 20       0HH0  .@0HH0  
     770:	20 20 20 20 22 20 18 00 20 20 20 20 1a 20 20 20         " ..    .   
     780:	30 40 44 40 30 20 20 20 20 20 20 30 28 3a 2c 18     0@D@0      0(:,.
     790:	20 20 30 28 3a 2c 38 20 00 18 14 14 18 20 20 20       0(:,8 .....   
     7a0:	00 21 22 24 28 10 0f 00 00 b0 a8 78 20 20 20 20     .!"$(......x    
     7b0:	20 20 20 a0 20 a0 28 30 20 20 20 a0 30 a0 20 20        . .(0   .0.  
     7c0:	00 60 80 80 a0 50 10 20 00 1e 20 20 20 20 20 20     .`...P. ..      
     7d0:	00 20 30 28 28 20 00 00 00 04 02 02 3a 02 02 01     . 0(( ......:...
     7e0:	00 00 04 06 3d 05 04 00 00 00 04 b6 ad 7d 04 00     ....=........}..
     7f0:	00 00 80 c0 bf a0 80 00 04 66 85 95 a8 a8 48 00     .........f....H.
     800:	00 00 00 3f 00 00 00 00 00 30 28 20 a0 20 28 30     ...?.....0( . (0
     810:	00 00 30 2a 28 32 00 00 00 30 28 22 20 22 28 30     ..0*(2...0(" "(0
     820:	00 30 28 22 21 22 28 30 00 c0 a8 a8 28 b0 20 20     .0("!"(0....(.  
     830:	00 c0 a8 a8 a8 30 20 20 00 c0 a8 aa 28 30 20 20     .....0  ....(0  
     840:	00 00 24 24 24 38 00 00 00 00 24 25 24 38 00 00     ..$$$8....$%$8..
     850:	00 80 80 40 30 00 00 00 00 00 80 80 40 34 00 00     ...@0.......@4..
     860:	60 80 80 78 20 38 20 18 60 80 80 78 22 39 22 18     `..x 8 .`..x"9".
     870:	60 80 80 60 30 28 28 18 60 80 80 60 30 28 2a 18     `..`0((.`..`0(*.
     880:	00 22 14 08 14 22 00 00 20 20 3e 30 28 28 18 00     ."..."..  >0((..
     890:	20 20 3e 30 28 2a 18 00 00 00 40 a0 b0 28 28 00       >0(*....@..((.
     8a0:	00 00 40 a0 b0 2a 28 00 20 20 20 20 20 20 20 20     ..@..*(.        
     8b0:	00 18 20 20 30 28 2a 30 00 60 80 80 b2 a8 7a 00     ..  0(*0.`....z.
     8c0:	00 30 28 2c 2a 20 3f 00 00 40 a9 aa a8 f0 00 00     .0(,* ?..@......
     8d0:	00 00 60 80 80 7e 00 00 00 40 aa a9 aa f0 00 00     ..`..~...@......
     8e0:	00 00 c0 20 30 28 28 30 00 00 60 80 88 80 60 00     ... 0((0..`...`.
     8f0:	00 00 30 28 28 30 00 00 00 00 00 b0 a8 78 00 00     ..0((0.......x..
     900:	04 26 25 25 28 10 0f 00 04 22 22 26 29 10 0f 00     .&%%(....""&)...
     910:	00 21 22 24 a8 d0 af a0 00 70 aa a9 aa 30 00 00     .!"$.....p...0..
     920:	00 70 aa a8 aa 30 00 00 00 30 40 40 50 28 08 00     .p...0...0@@P(..
     930:	00 30 c0 40 d0 28 08 00 00 00 02 79 02 00 00 00     .0.@.(.....y....
     940:	00 00 02 78 02 00 00 00 00 00 00 00 00 05 05 05     ...x............
     950:	00 00 00 04 03 0b 06 06 a0 a0 a0 00 00 00 00 00     ................
     960:	00 00 01 01 01 01 00 00 00 21 22 24 28 10 2f 20     .........!"$(./ 
     970:	00 00 00 00 00 04 03 03 00 00 80 80 80 80 00 00     ................
     980:	00 00 10 10 54 10 10 00 00 00 02 04 02 04 02 00     ....T...........
     990:	20 24 26 25 25 20 28 30 20 24 26 25 35 20 20 20      $&%% (0 $&%5   
     9a0:	08 6c 8a 8a a0 50 10 20 04 b6 ad 7d 24 20 20 20     .l...P. ...}$   
     9b0:	00 19 14 15 18 20 20 20 04 02 02 1a 22 22 21 20     .....   ....""! 
     9c0:	00 40 60 50 48 50 40 40                             .@`PHP@@

000009c8 <__ctors_end>:
     9c8:	11 24       	eor	r1, r1
     9ca:	1f be       	out	0x3f, r1	; 63
     9cc:	cf e5       	ldi	r28, 0x5F	; 95
     9ce:	d8 e0       	ldi	r29, 0x08	; 8
     9d0:	de bf       	out	0x3e, r29	; 62
     9d2:	cd bf       	out	0x3d, r28	; 61

000009d4 <__do_copy_data>:
     9d4:	10 e0       	ldi	r17, 0x00	; 0
     9d6:	a0 e6       	ldi	r26, 0x60	; 96
     9d8:	b0 e0       	ldi	r27, 0x00	; 0
     9da:	e0 ef       	ldi	r30, 0xF0	; 240
     9dc:	f6 e1       	ldi	r31, 0x16	; 22
     9de:	02 c0       	rjmp	.+4      	; 0x9e4 <__do_copy_data+0x10>
     9e0:	05 90       	lpm	r0, Z+
     9e2:	0d 92       	st	X+, r0
     9e4:	ac 36       	cpi	r26, 0x6C	; 108
     9e6:	b1 07       	cpc	r27, r17
     9e8:	d9 f7       	brne	.-10     	; 0x9e0 <__do_copy_data+0xc>

000009ea <__do_clear_bss>:
     9ea:	20 e0       	ldi	r18, 0x00	; 0
     9ec:	ac e6       	ldi	r26, 0x6C	; 108
     9ee:	b0 e0       	ldi	r27, 0x00	; 0
     9f0:	01 c0       	rjmp	.+2      	; 0x9f4 <.do_clear_bss_start>

000009f2 <.do_clear_bss_loop>:
     9f2:	1d 92       	st	X+, r1

000009f4 <.do_clear_bss_start>:
     9f4:	ae 3b       	cpi	r26, 0xBE	; 190
     9f6:	b2 07       	cpc	r27, r18
     9f8:	e1 f7       	brne	.-8      	; 0x9f2 <.do_clear_bss_loop>
     9fa:	0e 94 43 09 	call	0x1286	; 0x1286 <main>
     9fe:	0c 94 76 0b 	jmp	0x16ec	; 0x16ec <_exit>

00000a02 <__bad_interrupt>:
     a02:	0c 94 00 00 	jmp	0	; 0x0 <__vectors>

00000a06 <trigger>:

	// Размещаем буквы в центр виртуальных "кнопок"
	glcd_puts("C",16,5,0,2,1);
	glcd_puts("K",57,5,0,2,1);
	glcd_puts("F",97,5,0,2,1);
}
     a06:	82 b3       	in	r24, 0x12	; 18
     a08:	80 64       	ori	r24, 0x40	; 64
     a0a:	82 bb       	out	0x12, r24	; 18
     a0c:	85 e8       	ldi	r24, 0x85	; 133
     a0e:	8a 95       	dec	r24
     a10:	f1 f7       	brne	.-4      	; 0xa0e <trigger+0x8>
     a12:	00 00       	nop
     a14:	82 b3       	in	r24, 0x12	; 18
     a16:	8f 7b       	andi	r24, 0xBF	; 191
     a18:	82 bb       	out	0x12, r24	; 18
     a1a:	85 e8       	ldi	r24, 0x85	; 133
     a1c:	8a 95       	dec	r24
     a1e:	f1 f7       	brne	.-4      	; 0xa1c <trigger+0x16>
     a20:	00 00       	nop
     a22:	08 95       	ret

00000a24 <goto_col>:
     a24:	2b b3       	in	r18, 0x1b	; 27
     a26:	2b 7f       	andi	r18, 0xFB	; 251
     a28:	2b bb       	out	0x1b, r18	; 27
     a2a:	2b b3       	in	r18, 0x1b	; 27
     a2c:	27 7f       	andi	r18, 0xF7	; 247
     a2e:	2b bb       	out	0x1b, r18	; 27
     a30:	80 34       	cpi	r24, 0x40	; 64
     a32:	91 05       	cpc	r25, r1
     a34:	38 f4       	brcc	.+14     	; 0xa44 <goto_col+0x20>
     a36:	98 b3       	in	r25, 0x18	; 24
     a38:	9e 7f       	andi	r25, 0xFE	; 254
     a3a:	98 bb       	out	0x18, r25	; 24
     a3c:	98 b3       	in	r25, 0x18	; 24
     a3e:	92 60       	ori	r25, 0x02	; 2
     a40:	98 bb       	out	0x18, r25	; 24
     a42:	07 c0       	rjmp	.+14     	; 0xa52 <goto_col+0x2e>
     a44:	98 b3       	in	r25, 0x18	; 24
     a46:	91 60       	ori	r25, 0x01	; 1
     a48:	98 bb       	out	0x18, r25	; 24
     a4a:	98 b3       	in	r25, 0x18	; 24
     a4c:	9d 7f       	andi	r25, 0xFD	; 253
     a4e:	98 bb       	out	0x18, r25	; 24
     a50:	80 54       	subi	r24, 0x40	; 64
     a52:	8f 77       	andi	r24, 0x7F	; 127
     a54:	80 64       	ori	r24, 0x40	; 64
     a56:	85 bb       	out	0x15, r24	; 21
     a58:	0e 94 03 05 	call	0xa06	; 0xa06 <trigger>
     a5c:	08 95       	ret

00000a5e <goto_row>:
     a5e:	9b b3       	in	r25, 0x1b	; 27
     a60:	9b 7f       	andi	r25, 0xFB	; 251
     a62:	9b bb       	out	0x1b, r25	; 27
     a64:	9b b3       	in	r25, 0x1b	; 27
     a66:	97 7f       	andi	r25, 0xF7	; 247
     a68:	9b bb       	out	0x1b, r25	; 27
     a6a:	87 70       	andi	r24, 0x07	; 7
     a6c:	88 6b       	ori	r24, 0xB8	; 184
     a6e:	85 bb       	out	0x15, r24	; 21
     a70:	0e 94 03 05 	call	0xa06	; 0xa06 <trigger>
     a74:	08 95       	ret

00000a76 <goto_xy>:
     a76:	cf 93       	push	r28
     a78:	df 93       	push	r29
     a7a:	eb 01       	movw	r28, r22
     a7c:	0e 94 12 05 	call	0xa24	; 0xa24 <goto_col>
     a80:	ce 01       	movw	r24, r28
     a82:	0e 94 2f 05 	call	0xa5e	; 0xa5e <goto_row>
     a86:	df 91       	pop	r29
     a88:	cf 91       	pop	r28
     a8a:	08 95       	ret

00000a8c <glcd_write>:
     a8c:	9b b3       	in	r25, 0x1b	; 27
     a8e:	94 60       	ori	r25, 0x04	; 4
     a90:	9b bb       	out	0x1b, r25	; 27
     a92:	9b b3       	in	r25, 0x1b	; 27
     a94:	97 7f       	andi	r25, 0xF7	; 247
     a96:	9b bb       	out	0x1b, r25	; 27
     a98:	85 bb       	out	0x15, r24	; 21
     a9a:	82 e0       	ldi	r24, 0x02	; 2
     a9c:	8a 95       	dec	r24
     a9e:	f1 f7       	brne	.-4      	; 0xa9c <glcd_write+0x10>
     aa0:	00 c0       	rjmp	.+0      	; 0xaa2 <glcd_write+0x16>
     aa2:	0e 94 03 05 	call	0xa06	; 0xa06 <trigger>
     aa6:	08 95       	ret

00000aa8 <enlarge>:
     aa8:	dc 01       	movw	r26, r24
     aaa:	20 e0       	ldi	r18, 0x00	; 0
     aac:	50 e0       	ldi	r21, 0x00	; 0
     aae:	15 c0       	rjmp	.+42     	; 0xada <enlarge+0x32>
     ab0:	fd 01       	movw	r30, r26
     ab2:	e5 0f       	add	r30, r21
     ab4:	f1 1d       	adc	r31, r1
     ab6:	90 81       	ld	r25, Z
     ab8:	96 95       	lsr	r25
     aba:	90 83       	st	Z, r25
     abc:	60 ff       	sbrs	r22, 0
     abe:	02 c0       	rjmp	.+4      	; 0xac4 <enlarge+0x1c>
     ac0:	90 68       	ori	r25, 0x80	; 128
     ac2:	90 83       	st	Z, r25
     ac4:	2f 5f       	subi	r18, 0xFF	; 255
     ac6:	42 13       	cpse	r20, r18
     ac8:	02 c0       	rjmp	.+4      	; 0xace <enlarge+0x26>
     aca:	66 95       	lsr	r22
     acc:	20 e0       	ldi	r18, 0x00	; 0
     ace:	3f 5f       	subi	r19, 0xFF	; 255
     ad0:	01 c0       	rjmp	.+2      	; 0xad4 <enlarge+0x2c>
     ad2:	30 e0       	ldi	r19, 0x00	; 0
     ad4:	38 30       	cpi	r19, 0x08	; 8
     ad6:	60 f3       	brcs	.-40     	; 0xab0 <enlarge+0x8>
     ad8:	5f 5f       	subi	r21, 0xFF	; 255
     ada:	54 17       	cp	r21, r20
     adc:	d0 f3       	brcs	.-12     	; 0xad2 <enlarge+0x2a>
     ade:	08 95       	ret

00000ae0 <putItSz>:
     ae0:	2f 92       	push	r2
     ae2:	3f 92       	push	r3
     ae4:	4f 92       	push	r4
     ae6:	5f 92       	push	r5
     ae8:	6f 92       	push	r6
     aea:	7f 92       	push	r7
     aec:	8f 92       	push	r8
     aee:	9f 92       	push	r9
     af0:	af 92       	push	r10
     af2:	bf 92       	push	r11
     af4:	cf 92       	push	r12
     af6:	df 92       	push	r13
     af8:	ef 92       	push	r14
     afa:	ff 92       	push	r15
     afc:	0f 93       	push	r16
     afe:	1f 93       	push	r17
     b00:	cf 93       	push	r28
     b02:	df 93       	push	r29
     b04:	00 d0       	rcall	.+0      	; 0xb06 <putItSz+0x26>
     b06:	00 d0       	rcall	.+0      	; 0xb08 <putItSz+0x28>
     b08:	cd b7       	in	r28, 0x3d	; 61
     b0a:	de b7       	in	r29, 0x3e	; 62
     b0c:	8c 01       	movw	r16, r24
     b0e:	5b 01       	movw	r10, r22
     b10:	3a 01       	movw	r6, r20
     b12:	42 2e       	mov	r4, r18
     b14:	2d b7       	in	r18, 0x3d	; 61
     b16:	3e b7       	in	r19, 0x3e	; 62
     b18:	3c 83       	std	Y+4, r19	; 0x04
     b1a:	2b 83       	std	Y+3, r18	; 0x03
     b1c:	84 2c       	mov	r8, r4
     b1e:	91 2c       	mov	r9, r1
     b20:	74 01       	movw	r14, r8
     b22:	c4 01       	movw	r24, r8
     b24:	88 0f       	add	r24, r24
     b26:	99 1f       	adc	r25, r25
     b28:	88 0f       	add	r24, r24
     b2a:	99 1f       	adc	r25, r25
     b2c:	88 0f       	add	r24, r24
     b2e:	99 1f       	adc	r25, r25
     b30:	28 1b       	sub	r18, r24
     b32:	39 0b       	sbc	r19, r25
     b34:	0f b6       	in	r0, 0x3f	; 63
     b36:	f8 94       	cli
     b38:	3e bf       	out	0x3e, r19	; 62
     b3a:	0f be       	out	0x3f, r0	; 63
     b3c:	2d bf       	out	0x3d, r18	; 61
     b3e:	8d b7       	in	r24, 0x3d	; 61
     b40:	9e b7       	in	r25, 0x3e	; 62
     b42:	01 96       	adiw	r24, 0x01	; 1
     b44:	6c 01       	movw	r12, r24
     b46:	69 83       	std	Y+1, r22	; 0x01
     b48:	ba 82       	std	Y+2, r11	; 0x02
     b4a:	cb 01       	movw	r24, r22
     b4c:	0e 94 12 05 	call	0xa24	; 0xa24 <goto_col>
     b50:	c3 01       	movw	r24, r6
     b52:	0e 94 2f 05 	call	0xa5e	; 0xa5e <goto_row>
     b56:	51 2c       	mov	r5, r1
     b58:	1b c0       	rjmp	.+54     	; 0xb90 <putItSz+0xb0>
     b5a:	25 2d       	mov	r18, r5
     b5c:	30 e0       	ldi	r19, 0x00	; 0
     b5e:	f8 01       	movw	r30, r16
     b60:	ee 0f       	add	r30, r30
     b62:	ff 1f       	adc	r31, r31
     b64:	ee 0f       	add	r30, r30
     b66:	ff 1f       	adc	r31, r31
     b68:	ee 0f       	add	r30, r30
     b6a:	ff 1f       	adc	r31, r31
     b6c:	e2 0f       	add	r30, r18
     b6e:	f3 1f       	adc	r31, r19
     b70:	e8 53       	subi	r30, 0x38	; 56
     b72:	fe 4f       	sbci	r31, 0xFE	; 254
     b74:	64 91       	lpm	r22, Z
     b76:	e2 9e       	mul	r14, r18
     b78:	c0 01       	movw	r24, r0
     b7a:	e3 9e       	mul	r14, r19
     b7c:	90 0d       	add	r25, r0
     b7e:	f2 9e       	mul	r15, r18
     b80:	90 0d       	add	r25, r0
     b82:	11 24       	eor	r1, r1
     b84:	44 2d       	mov	r20, r4
     b86:	8c 0d       	add	r24, r12
     b88:	9d 1d       	adc	r25, r13
     b8a:	0e 94 54 05 	call	0xaa8	; 0xaa8 <enlarge>
     b8e:	53 94       	inc	r5
     b90:	97 e0       	ldi	r25, 0x07	; 7
     b92:	95 15       	cp	r25, r5
     b94:	10 f7       	brcc	.-60     	; 0xb5a <putItSz+0x7a>
     b96:	21 2c       	mov	r2, r1
     b98:	39 c0       	rjmp	.+114    	; 0xc0c <putItSz+0x12c>
     b9a:	03 2d       	mov	r16, r3
     b9c:	10 e0       	ldi	r17, 0x00	; 0
     b9e:	80 9e       	mul	r8, r16
     ba0:	c0 01       	movw	r24, r0
     ba2:	81 9e       	mul	r8, r17
     ba4:	90 0d       	add	r25, r0
     ba6:	90 9e       	mul	r9, r16
     ba8:	90 0d       	add	r25, r0
     baa:	11 24       	eor	r1, r1
     bac:	95 01       	movw	r18, r10
     bae:	25 0d       	add	r18, r5
     bb0:	31 1d       	adc	r19, r1
     bb2:	82 0f       	add	r24, r18
     bb4:	93 1f       	adc	r25, r19
     bb6:	80 34       	cpi	r24, 0x40	; 64
     bb8:	91 05       	cpc	r25, r1
     bba:	29 f4       	brne	.+10     	; 0xbc6 <putItSz+0xe6>
     bbc:	b3 01       	movw	r22, r6
     bbe:	80 e4       	ldi	r24, 0x40	; 64
     bc0:	90 e0       	ldi	r25, 0x00	; 0
     bc2:	0e 94 3b 05 	call	0xa76	; 0xa76 <goto_xy>
     bc6:	e0 9e       	mul	r14, r16
     bc8:	c0 01       	movw	r24, r0
     bca:	e1 9e       	mul	r14, r17
     bcc:	90 0d       	add	r25, r0
     bce:	f0 9e       	mul	r15, r16
     bd0:	90 0d       	add	r25, r0
     bd2:	11 24       	eor	r1, r1
     bd4:	f6 01       	movw	r30, r12
     bd6:	e2 0d       	add	r30, r2
     bd8:	f1 1d       	adc	r31, r1
     bda:	e8 0f       	add	r30, r24
     bdc:	f9 1f       	adc	r31, r25
     bde:	80 81       	ld	r24, Z
     be0:	0e 94 46 05 	call	0xa8c	; 0xa8c <glcd_write>
     be4:	53 94       	inc	r5
     be6:	01 c0       	rjmp	.+2      	; 0xbea <putItSz+0x10a>
     be8:	51 2c       	mov	r5, r1
     bea:	54 14       	cp	r5, r4
     bec:	b0 f2       	brcs	.-84     	; 0xb9a <putItSz+0xba>
     bee:	33 94       	inc	r3
     bf0:	01 c0       	rjmp	.+2      	; 0xbf4 <putItSz+0x114>
     bf2:	31 2c       	mov	r3, r1
     bf4:	27 e0       	ldi	r18, 0x07	; 7
     bf6:	23 15       	cp	r18, r3
     bf8:	b8 f7       	brcc	.-18     	; 0xbe8 <putItSz+0x108>
     bfa:	3f ef       	ldi	r19, 0xFF	; 255
     bfc:	63 1a       	sub	r6, r19
     bfe:	73 0a       	sbc	r7, r19
     c00:	b3 01       	movw	r22, r6
     c02:	89 81       	ldd	r24, Y+1	; 0x01
     c04:	9a 81       	ldd	r25, Y+2	; 0x02
     c06:	0e 94 3b 05 	call	0xa76	; 0xa76 <goto_xy>
     c0a:	23 94       	inc	r2
     c0c:	24 14       	cp	r2, r4
     c0e:	88 f3       	brcs	.-30     	; 0xbf2 <putItSz+0x112>
     c10:	8b 81       	ldd	r24, Y+3	; 0x03
     c12:	9c 81       	ldd	r25, Y+4	; 0x04
     c14:	0f b6       	in	r0, 0x3f	; 63
     c16:	f8 94       	cli
     c18:	9e bf       	out	0x3e, r25	; 62
     c1a:	0f be       	out	0x3f, r0	; 63
     c1c:	8d bf       	out	0x3d, r24	; 61
     c1e:	0f 90       	pop	r0
     c20:	0f 90       	pop	r0
     c22:	0f 90       	pop	r0
     c24:	0f 90       	pop	r0
     c26:	df 91       	pop	r29
     c28:	cf 91       	pop	r28
     c2a:	1f 91       	pop	r17
     c2c:	0f 91       	pop	r16
     c2e:	ff 90       	pop	r15
     c30:	ef 90       	pop	r14
     c32:	df 90       	pop	r13
     c34:	cf 90       	pop	r12
     c36:	bf 90       	pop	r11
     c38:	af 90       	pop	r10
     c3a:	9f 90       	pop	r9
     c3c:	8f 90       	pop	r8
     c3e:	7f 90       	pop	r7
     c40:	6f 90       	pop	r6
     c42:	5f 90       	pop	r5
     c44:	4f 90       	pop	r4
     c46:	3f 90       	pop	r3
     c48:	2f 90       	pop	r2
     c4a:	08 95       	ret

00000c4c <glcd_putchar>:
     c4c:	ef 92       	push	r14
     c4e:	ff 92       	push	r15
     c50:	0f 93       	push	r16
     c52:	1f 93       	push	r17
     c54:	cf 93       	push	r28
     c56:	df 93       	push	r29
     c58:	c8 2f       	mov	r28, r24
     c5a:	d6 2f       	mov	r29, r22
     c5c:	f7 2e       	mov	r15, r23
     c5e:	14 2f       	mov	r17, r20
     c60:	e5 2e       	mov	r14, r21
     c62:	21 30       	cpi	r18, 0x01	; 1
     c64:	09 f0       	breq	.+2      	; 0xc68 <glcd_putchar+0x1c>
     c66:	91 c0       	rjmp	.+290    	; 0xd8a <glcd_putchar+0x13e>
     c68:	8e 38       	cpi	r24, 0x8E	; 142
     c6a:	79 f0       	breq	.+30     	; 0xc8a <glcd_putchar+0x3e>
     c6c:	28 f4       	brcc	.+10     	; 0xc78 <glcd_putchar+0x2c>
     c6e:	81 38       	cpi	r24, 0x81	; 129
     c70:	81 f0       	breq	.+32     	; 0xc92 <glcd_putchar+0x46>
     c72:	8d 38       	cpi	r24, 0x8D	; 141
     c74:	61 f0       	breq	.+24     	; 0xc8e <glcd_putchar+0x42>
     c76:	0e c0       	rjmp	.+28     	; 0xc94 <glcd_putchar+0x48>
     c78:	80 39       	cpi	r24, 0x90	; 144
     c7a:	19 f0       	breq	.+6      	; 0xc82 <glcd_putchar+0x36>
     c7c:	88 39       	cpi	r24, 0x98	; 152
     c7e:	19 f0       	breq	.+6      	; 0xc86 <glcd_putchar+0x3a>
     c80:	09 c0       	rjmp	.+18     	; 0xc94 <glcd_putchar+0x48>
     c82:	cb ef       	ldi	r28, 0xFB	; 251
     c84:	07 c0       	rjmp	.+14     	; 0xc94 <glcd_putchar+0x48>
     c86:	cc ef       	ldi	r28, 0xFC	; 252
     c88:	05 c0       	rjmp	.+10     	; 0xc94 <glcd_putchar+0x48>
     c8a:	cd ef       	ldi	r28, 0xFD	; 253
     c8c:	03 c0       	rjmp	.+6      	; 0xc94 <glcd_putchar+0x48>
     c8e:	ce ef       	ldi	r28, 0xFE	; 254
     c90:	01 c0       	rjmp	.+2      	; 0xc94 <glcd_putchar+0x48>
     c92:	ca ef       	ldi	r28, 0xFA	; 250
     c94:	c1 3c       	cpi	r28, 0xC1	; 193
     c96:	08 f4       	brcc	.+2      	; 0xc9a <glcd_putchar+0x4e>
     c98:	45 c0       	rjmp	.+138    	; 0xd24 <glcd_putchar+0xd8>
     c9a:	80 91 60 00 	lds	r24, 0x0060	; 0x800060 <__DATA_REGION_ORIGIN__>
     c9e:	90 91 61 00 	lds	r25, 0x0061	; 0x800061 <__DATA_REGION_ORIGIN__+0x1>
     ca2:	81 3c       	cpi	r24, 0xC1	; 193
     ca4:	91 05       	cpc	r25, r1
     ca6:	0c f4       	brge	.+2      	; 0xcaa <glcd_putchar+0x5e>
     ca8:	3d c0       	rjmp	.+122    	; 0xd24 <glcd_putchar+0xd8>
     caa:	81 5c       	subi	r24, 0xC1	; 193
     cac:	91 09       	sbc	r25, r1
     cae:	fc 01       	movw	r30, r24
     cb0:	ee 0f       	add	r30, r30
     cb2:	ff 1f       	adc	r31, r31
     cb4:	e8 0f       	add	r30, r24
     cb6:	f9 1f       	adc	r31, r25
     cb8:	ee 0f       	add	r30, r30
     cba:	ff 1f       	adc	r31, r31
     cbc:	e7 5a       	subi	r30, 0xA7	; 167
     cbe:	ff 4f       	sbci	r31, 0xFF	; 255
     cc0:	e4 91       	lpm	r30, Z
     cc2:	ee 23       	and	r30, r30
     cc4:	79 f1       	breq	.+94     	; 0xd24 <glcd_putchar+0xd8>
     cc6:	2c 2f       	mov	r18, r28
     cc8:	30 e0       	ldi	r19, 0x00	; 0
     cca:	21 5c       	subi	r18, 0xC1	; 193
     ccc:	31 09       	sbc	r19, r1
     cce:	f9 01       	movw	r30, r18
     cd0:	ee 0f       	add	r30, r30
     cd2:	ff 1f       	adc	r31, r31
     cd4:	e2 0f       	add	r30, r18
     cd6:	f3 1f       	adc	r31, r19
     cd8:	ee 0f       	add	r30, r30
     cda:	ff 1f       	adc	r31, r31
     cdc:	e8 5a       	subi	r30, 0xA8	; 168
     cde:	ff 4f       	sbci	r31, 0xFF	; 255
     ce0:	e4 91       	lpm	r30, Z
     ce2:	ee 23       	and	r30, r30
     ce4:	f9 f0       	breq	.+62     	; 0xd24 <glcd_putchar+0xd8>
     ce6:	e0 91 73 00 	lds	r30, 0x0073	; 0x800073 <stat>
     cea:	f0 e0       	ldi	r31, 0x00	; 0
     cec:	31 96       	adiw	r30, 0x01	; 1
     cee:	9c 01       	movw	r18, r24
     cf0:	22 0f       	add	r18, r18
     cf2:	33 1f       	adc	r19, r19
     cf4:	82 0f       	add	r24, r18
     cf6:	93 1f       	adc	r25, r19
     cf8:	88 0f       	add	r24, r24
     cfa:	99 1f       	adc	r25, r25
     cfc:	8e 0f       	add	r24, r30
     cfe:	9f 1f       	adc	r25, r31
     d00:	fc 01       	movw	r30, r24
     d02:	ec 5a       	subi	r30, 0xAC	; 172
     d04:	ff 4f       	sbci	r31, 0xFF	; 255
     d06:	84 91       	lpm	r24, Z
     d08:	40 91 71 00 	lds	r20, 0x0071	; 0x800071 <prevY>
     d0c:	50 e0       	ldi	r21, 0x00	; 0
     d0e:	60 91 72 00 	lds	r22, 0x0072	; 0x800072 <prevX>
     d12:	70 e0       	ldi	r23, 0x00	; 0
     d14:	20 2f       	mov	r18, r16
     d16:	90 e0       	ldi	r25, 0x00	; 0
     d18:	0e 94 70 05 	call	0xae0	; 0xae0 <putItSz>
     d1c:	82 e0       	ldi	r24, 0x02	; 2
     d1e:	80 93 73 00 	sts	0x0073, r24	; 0x800073 <stat>
     d22:	02 c0       	rjmp	.+4      	; 0xd28 <glcd_putchar+0xdc>
     d24:	10 92 73 00 	sts	0x0073, r1	; 0x800073 <stat>
     d28:	c1 3c       	cpi	r28, 0xC1	; 193
     d2a:	d8 f0       	brcs	.+54     	; 0xd62 <glcd_putchar+0x116>
     d2c:	8c 2f       	mov	r24, r28
     d2e:	90 e0       	ldi	r25, 0x00	; 0
     d30:	81 5c       	subi	r24, 0xC1	; 193
     d32:	91 09       	sbc	r25, r1
     d34:	20 91 73 00 	lds	r18, 0x0073	; 0x800073 <stat>
     d38:	fc 01       	movw	r30, r24
     d3a:	ee 0f       	add	r30, r30
     d3c:	ff 1f       	adc	r31, r31
     d3e:	e8 0f       	add	r30, r24
     d40:	f9 1f       	adc	r31, r25
     d42:	ee 0f       	add	r30, r30
     d44:	ff 1f       	adc	r31, r31
     d46:	e2 0f       	add	r30, r18
     d48:	f1 1d       	adc	r31, r1
     d4a:	ec 5a       	subi	r30, 0xAC	; 172
     d4c:	ff 4f       	sbci	r31, 0xFF	; 255
     d4e:	84 91       	lpm	r24, Z
     d50:	20 2f       	mov	r18, r16
     d52:	41 2f       	mov	r20, r17
     d54:	5e 2d       	mov	r21, r14
     d56:	6d 2f       	mov	r22, r29
     d58:	7f 2d       	mov	r23, r15
     d5a:	90 e0       	ldi	r25, 0x00	; 0
     d5c:	0e 94 70 05 	call	0xae0	; 0xae0 <putItSz>
     d60:	09 c0       	rjmp	.+18     	; 0xd74 <glcd_putchar+0x128>
     d62:	20 2f       	mov	r18, r16
     d64:	41 2f       	mov	r20, r17
     d66:	5e 2d       	mov	r21, r14
     d68:	6d 2f       	mov	r22, r29
     d6a:	7f 2d       	mov	r23, r15
     d6c:	8c 2f       	mov	r24, r28
     d6e:	90 e0       	ldi	r25, 0x00	; 0
     d70:	0e 94 70 05 	call	0xae0	; 0xae0 <putItSz>
     d74:	8c 2f       	mov	r24, r28
     d76:	90 e0       	ldi	r25, 0x00	; 0
     d78:	90 93 61 00 	sts	0x0061, r25	; 0x800061 <__DATA_REGION_ORIGIN__+0x1>
     d7c:	80 93 60 00 	sts	0x0060, r24	; 0x800060 <__DATA_REGION_ORIGIN__>
     d80:	d0 93 72 00 	sts	0x0072, r29	; 0x800072 <prevX>
     d84:	10 93 71 00 	sts	0x0071, r17	; 0x800071 <prevY>
     d88:	04 c0       	rjmp	.+8      	; 0xd92 <glcd_putchar+0x146>
     d8a:	20 2f       	mov	r18, r16
     d8c:	90 e0       	ldi	r25, 0x00	; 0
     d8e:	0e 94 70 05 	call	0xae0	; 0xae0 <putItSz>
     d92:	df 91       	pop	r29
     d94:	cf 91       	pop	r28
     d96:	1f 91       	pop	r17
     d98:	0f 91       	pop	r16
     d9a:	ff 90       	pop	r15
     d9c:	ef 90       	pop	r14
     d9e:	08 95       	ret

00000da0 <glcd_puts>:
     da0:	2f 92       	push	r2
     da2:	3f 92       	push	r3
     da4:	4f 92       	push	r4
     da6:	5f 92       	push	r5
     da8:	6f 92       	push	r6
     daa:	7f 92       	push	r7
     dac:	8f 92       	push	r8
     dae:	9f 92       	push	r9
     db0:	af 92       	push	r10
     db2:	bf 92       	push	r11
     db4:	cf 92       	push	r12
     db6:	df 92       	push	r13
     db8:	ef 92       	push	r14
     dba:	ff 92       	push	r15
     dbc:	0f 93       	push	r16
     dbe:	1f 93       	push	r17
     dc0:	cf 93       	push	r28
     dc2:	df 93       	push	r29
     dc4:	6c 01       	movw	r12, r24
     dc6:	eb 01       	movw	r28, r22
     dc8:	5a 01       	movw	r10, r20
     dca:	32 2e       	mov	r3, r18
     dcc:	f0 2e       	mov	r15, r16
     dce:	10 e0       	ldi	r17, 0x00	; 0
     dd0:	2c c0       	rjmp	.+88     	; 0xe2a <glcd_puts+0x8a>
     dd2:	f6 01       	movw	r30, r12
     dd4:	e8 0f       	add	r30, r24
     dd6:	f9 1f       	adc	r31, r25
     dd8:	0f 2d       	mov	r16, r15
     dda:	20 e0       	ldi	r18, 0x00	; 0
     ddc:	a5 01       	movw	r20, r10
     dde:	be 01       	movw	r22, r28
     de0:	80 81       	ld	r24, Z
     de2:	0e 94 26 06 	call	0xc4c	; 0xc4c <glcd_putchar>
     de6:	8e 2d       	mov	r24, r14
     de8:	0e 2c       	mov	r0, r14
     dea:	00 0c       	add	r0, r0
     dec:	99 0b       	sbc	r25, r25
     dee:	08 96       	adiw	r24, 0x08	; 8
     df0:	2f 2d       	mov	r18, r15
     df2:	30 e0       	ldi	r19, 0x00	; 0
     df4:	82 9f       	mul	r24, r18
     df6:	a0 01       	movw	r20, r0
     df8:	83 9f       	mul	r24, r19
     dfa:	50 0d       	add	r21, r0
     dfc:	92 9f       	mul	r25, r18
     dfe:	50 0d       	add	r21, r0
     e00:	11 24       	eor	r1, r1
     e02:	c4 0f       	add	r28, r20
     e04:	d5 1f       	adc	r29, r21
     e06:	80 e1       	ldi	r24, 0x10	; 16
     e08:	90 e0       	ldi	r25, 0x00	; 0
     e0a:	82 1b       	sub	r24, r18
     e0c:	93 0b       	sbc	r25, r19
     e0e:	88 0f       	add	r24, r24
     e10:	99 1f       	adc	r25, r25
     e12:	88 0f       	add	r24, r24
     e14:	99 1f       	adc	r25, r25
     e16:	88 0f       	add	r24, r24
     e18:	99 1f       	adc	r25, r25
     e1a:	8c 17       	cp	r24, r28
     e1c:	9d 07       	cpc	r25, r29
     e1e:	24 f4       	brge	.+8      	; 0xe28 <glcd_puts+0x88>
     e20:	a2 0e       	add	r10, r18
     e22:	b3 1e       	adc	r11, r19
     e24:	c0 e0       	ldi	r28, 0x00	; 0
     e26:	d0 e0       	ldi	r29, 0x00	; 0
     e28:	1f 5f       	subi	r17, 0xFF	; 255
     e2a:	81 2f       	mov	r24, r17
     e2c:	90 e0       	ldi	r25, 0x00	; 0
     e2e:	f6 01       	movw	r30, r12
     e30:	01 90       	ld	r0, Z+
     e32:	00 20       	and	r0, r0
     e34:	e9 f7       	brne	.-6      	; 0xe30 <glcd_puts+0x90>
     e36:	31 97       	sbiw	r30, 0x01	; 1
     e38:	ec 19       	sub	r30, r12
     e3a:	fd 09       	sbc	r31, r13
     e3c:	8e 17       	cp	r24, r30
     e3e:	9f 07       	cpc	r25, r31
     e40:	08 f0       	brcs	.+2      	; 0xe44 <glcd_puts+0xa4>
     e42:	99 c0       	rjmp	.+306    	; 0xf76 <glcd_puts+0x1d6>
     e44:	33 20       	and	r3, r3
     e46:	29 f2       	breq	.-118    	; 0xdd2 <glcd_puts+0x32>
     e48:	21 2c       	mov	r2, r1
     e4a:	96 c0       	rjmp	.+300    	; 0xf78 <glcd_puts+0x1d8>
     e4c:	26 01       	movw	r4, r12
     e4e:	42 0e       	add	r4, r18
     e50:	53 1e       	adc	r5, r19
     e52:	f2 01       	movw	r30, r4
     e54:	80 81       	ld	r24, Z
     e56:	81 3e       	cpi	r24, 0xE1	; 225
     e58:	39 f4       	brne	.+14     	; 0xe68 <glcd_puts+0xc8>
     e5a:	f9 01       	movw	r30, r18
     e5c:	31 96       	adiw	r30, 0x01	; 1
     e5e:	ec 0d       	add	r30, r12
     e60:	fd 1d       	adc	r31, r13
     e62:	90 81       	ld	r25, Z
     e64:	97 3c       	cpi	r25, 0xC7	; 199
     e66:	e9 f0       	breq	.+58     	; 0xea2 <glcd_puts+0x102>
     e68:	81 3e       	cpi	r24, 0xE1	; 225
     e6a:	39 f4       	brne	.+14     	; 0xe7a <glcd_puts+0xda>
     e6c:	f9 01       	movw	r30, r18
     e6e:	31 96       	adiw	r30, 0x01	; 1
     e70:	ec 0d       	add	r30, r12
     e72:	fd 1d       	adc	r31, r13
     e74:	90 81       	ld	r25, Z
     e76:	93 3c       	cpi	r25, 0xC3	; 195
     e78:	c9 f0       	breq	.+50     	; 0xeac <glcd_puts+0x10c>
     e7a:	81 3e       	cpi	r24, 0xE1	; 225
     e7c:	39 f4       	brne	.+14     	; 0xe8c <glcd_puts+0xec>
     e7e:	f9 01       	movw	r30, r18
     e80:	31 96       	adiw	r30, 0x01	; 1
     e82:	ec 0d       	add	r30, r12
     e84:	fd 1d       	adc	r31, r13
     e86:	90 81       	ld	r25, Z
     e88:	92 3c       	cpi	r25, 0xC2	; 194
     e8a:	a9 f0       	breq	.+42     	; 0xeb6 <glcd_puts+0x116>
     e8c:	81 3e       	cpi	r24, 0xE1	; 225
     e8e:	e1 f4       	brne	.+56     	; 0xec8 <glcd_puts+0x128>
     e90:	2f 5f       	subi	r18, 0xFF	; 255
     e92:	3f 4f       	sbci	r19, 0xFF	; 255
     e94:	f6 01       	movw	r30, r12
     e96:	e2 0f       	add	r30, r18
     e98:	f3 1f       	adc	r31, r19
     e9a:	90 81       	ld	r25, Z
     e9c:	95 3c       	cpi	r25, 0xC5	; 197
     e9e:	a1 f4       	brne	.+40     	; 0xec8 <glcd_puts+0x128>
     ea0:	0f c0       	rjmp	.+30     	; 0xec0 <glcd_puts+0x120>
     ea2:	0f 2e       	mov	r0, r31
     ea4:	f9 ef       	ldi	r31, 0xF9	; 249
     ea6:	2f 2e       	mov	r2, r31
     ea8:	f0 2d       	mov	r31, r0
     eaa:	0e c0       	rjmp	.+28     	; 0xec8 <glcd_puts+0x128>
     eac:	0f 2e       	mov	r0, r31
     eae:	f7 ee       	ldi	r31, 0xE7	; 231
     eb0:	2f 2e       	mov	r2, r31
     eb2:	f0 2d       	mov	r31, r0
     eb4:	09 c0       	rjmp	.+18     	; 0xec8 <glcd_puts+0x128>
     eb6:	0f 2e       	mov	r0, r31
     eb8:	f8 ee       	ldi	r31, 0xE8	; 232
     eba:	2f 2e       	mov	r2, r31
     ebc:	f0 2d       	mov	r31, r0
     ebe:	04 c0       	rjmp	.+8      	; 0xec8 <glcd_puts+0x128>
     ec0:	0f 2e       	mov	r0, r31
     ec2:	f9 ee       	ldi	r31, 0xE9	; 233
     ec4:	2f 2e       	mov	r2, r31
     ec6:	f0 2d       	mov	r31, r0
     ec8:	22 20       	and	r2, r2
     eca:	a1 f0       	breq	.+40     	; 0xef4 <glcd_puts+0x154>
     ecc:	8f 2d       	mov	r24, r15
     ece:	90 e0       	ldi	r25, 0x00	; 0
     ed0:	88 0f       	add	r24, r24
     ed2:	99 1f       	adc	r25, r25
     ed4:	88 0f       	add	r24, r24
     ed6:	99 1f       	adc	r25, r25
     ed8:	88 0f       	add	r24, r24
     eda:	99 1f       	adc	r25, r25
     edc:	c8 1b       	sub	r28, r24
     ede:	d9 0b       	sbc	r29, r25
     ee0:	0f 2d       	mov	r16, r15
     ee2:	21 e0       	ldi	r18, 0x01	; 1
     ee4:	a5 01       	movw	r20, r10
     ee6:	be 01       	movw	r22, r28
     ee8:	82 2d       	mov	r24, r2
     eea:	0e 94 26 06 	call	0xc4c	; 0xc4c <glcd_putchar>
     eee:	1e 5f       	subi	r17, 0xFE	; 254
     ef0:	21 2c       	mov	r2, r1
     ef2:	27 c0       	rjmp	.+78     	; 0xf42 <glcd_puts+0x1a2>
     ef4:	6f 2c       	mov	r6, r15
     ef6:	71 2c       	mov	r7, r1
     ef8:	93 01       	movw	r18, r6
     efa:	22 0f       	add	r18, r18
     efc:	33 1f       	adc	r19, r19
     efe:	22 0f       	add	r18, r18
     f00:	33 1f       	adc	r19, r19
     f02:	22 0f       	add	r18, r18
     f04:	33 1f       	adc	r19, r19
     f06:	4e 01       	movw	r8, r28
     f08:	82 1a       	sub	r8, r18
     f0a:	93 0a       	sbc	r9, r19
     f0c:	0f 2d       	mov	r16, r15
     f0e:	23 2d       	mov	r18, r3
     f10:	a5 01       	movw	r20, r10
     f12:	b4 01       	movw	r22, r8
     f14:	0e 94 26 06 	call	0xc4c	; 0xc4c <glcd_putchar>
     f18:	f2 01       	movw	r30, r4
     f1a:	80 81       	ld	r24, Z
     f1c:	80 32       	cpi	r24, 0x20	; 32
     f1e:	79 f4       	brne	.+30     	; 0xf3e <glcd_puts+0x19e>
     f20:	8e 2d       	mov	r24, r14
     f22:	0e 2c       	mov	r0, r14
     f24:	00 0c       	add	r0, r0
     f26:	99 0b       	sbc	r25, r25
     f28:	08 96       	adiw	r24, 0x08	; 8
     f2a:	68 9e       	mul	r6, r24
     f2c:	90 01       	movw	r18, r0
     f2e:	69 9e       	mul	r6, r25
     f30:	30 0d       	add	r19, r0
     f32:	78 9e       	mul	r7, r24
     f34:	30 0d       	add	r19, r0
     f36:	11 24       	eor	r1, r1
     f38:	4e 01       	movw	r8, r28
     f3a:	82 1a       	sub	r8, r18
     f3c:	93 0a       	sbc	r9, r19
     f3e:	1f 5f       	subi	r17, 0xFF	; 255
     f40:	e4 01       	movw	r28, r8
     f42:	2f 2d       	mov	r18, r15
     f44:	30 e0       	ldi	r19, 0x00	; 0
     f46:	c9 01       	movw	r24, r18
     f48:	88 0f       	add	r24, r24
     f4a:	99 1f       	adc	r25, r25
     f4c:	88 0f       	add	r24, r24
     f4e:	99 1f       	adc	r25, r25
     f50:	88 0f       	add	r24, r24
     f52:	99 1f       	adc	r25, r25
     f54:	01 96       	adiw	r24, 0x01	; 1
     f56:	c8 17       	cp	r28, r24
     f58:	d9 07       	cpc	r29, r25
     f5a:	74 f4       	brge	.+28     	; 0xf78 <glcd_puts+0x1d8>
     f5c:	c0 e1       	ldi	r28, 0x10	; 16
     f5e:	d0 e0       	ldi	r29, 0x00	; 0
     f60:	c2 1b       	sub	r28, r18
     f62:	d3 0b       	sbc	r29, r19
     f64:	cc 0f       	add	r28, r28
     f66:	dd 1f       	adc	r29, r29
     f68:	cc 0f       	add	r28, r28
     f6a:	dd 1f       	adc	r29, r29
     f6c:	cc 0f       	add	r28, r28
     f6e:	dd 1f       	adc	r29, r29
     f70:	a2 0e       	add	r10, r18
     f72:	b3 1e       	adc	r11, r19
     f74:	01 c0       	rjmp	.+2      	; 0xf78 <glcd_puts+0x1d8>
     f76:	21 2c       	mov	r2, r1
     f78:	21 2f       	mov	r18, r17
     f7a:	30 e0       	ldi	r19, 0x00	; 0
     f7c:	f6 01       	movw	r30, r12
     f7e:	01 90       	ld	r0, Z+
     f80:	00 20       	and	r0, r0
     f82:	e9 f7       	brne	.-6      	; 0xf7e <glcd_puts+0x1de>
     f84:	31 97       	sbiw	r30, 0x01	; 1
     f86:	ec 19       	sub	r30, r12
     f88:	fd 09       	sbc	r31, r13
     f8a:	2e 17       	cp	r18, r30
     f8c:	3f 07       	cpc	r19, r31
     f8e:	20 f4       	brcc	.+8      	; 0xf98 <glcd_puts+0x1f8>
     f90:	f1 e0       	ldi	r31, 0x01	; 1
     f92:	3f 16       	cp	r3, r31
     f94:	09 f4       	brne	.+2      	; 0xf98 <glcd_puts+0x1f8>
     f96:	5a cf       	rjmp	.-332    	; 0xe4c <glcd_puts+0xac>
     f98:	81 ec       	ldi	r24, 0xC1	; 193
     f9a:	90 e0       	ldi	r25, 0x00	; 0
     f9c:	90 93 61 00 	sts	0x0061, r25	; 0x800061 <__DATA_REGION_ORIGIN__+0x1>
     fa0:	80 93 60 00 	sts	0x0060, r24	; 0x800060 <__DATA_REGION_ORIGIN__>
     fa4:	df 91       	pop	r29
     fa6:	cf 91       	pop	r28
     fa8:	1f 91       	pop	r17
     faa:	0f 91       	pop	r16
     fac:	ff 90       	pop	r15
     fae:	ef 90       	pop	r14
     fb0:	df 90       	pop	r13
     fb2:	cf 90       	pop	r12
     fb4:	bf 90       	pop	r11
     fb6:	af 90       	pop	r10
     fb8:	9f 90       	pop	r9
     fba:	8f 90       	pop	r8
     fbc:	7f 90       	pop	r7
     fbe:	6f 90       	pop	r6
     fc0:	5f 90       	pop	r5
     fc2:	4f 90       	pop	r4
     fc4:	3f 90       	pop	r3
     fc6:	2f 90       	pop	r2
     fc8:	08 95       	ret

00000fca <IO_init>:
     fca:	8a b3       	in	r24, 0x1a	; 26
     fcc:	8c 60       	ori	r24, 0x0C	; 12
     fce:	8a bb       	out	0x1a, r24	; 26
     fd0:	8b b3       	in	r24, 0x1b	; 27
     fd2:	84 60       	ori	r24, 0x04	; 4
     fd4:	8b bb       	out	0x1b, r24	; 27
     fd6:	87 b3       	in	r24, 0x17	; 23
     fd8:	83 6e       	ori	r24, 0xE3	; 227
     fda:	87 bb       	out	0x17, r24	; 23
     fdc:	88 b3       	in	r24, 0x18	; 24
     fde:	88 bb       	out	0x18, r24	; 24
     fe0:	81 b3       	in	r24, 0x11	; 17
     fe2:	80 6c       	ori	r24, 0xC0	; 192
     fe4:	81 bb       	out	0x11, r24	; 17
     fe6:	82 b3       	in	r24, 0x12	; 18
     fe8:	80 68       	ori	r24, 0x80	; 128
     fea:	82 bb       	out	0x12, r24	; 18
     fec:	84 b3       	in	r24, 0x14	; 20
     fee:	8f ef       	ldi	r24, 0xFF	; 255
     ff0:	84 bb       	out	0x14, r24	; 20
     ff2:	08 95       	ret

00000ff4 <timer_init>:
     ff4:	14 bc       	out	0x24, r1	; 36
     ff6:	89 ef       	ldi	r24, 0xF9	; 249
     ff8:	83 bd       	out	0x23, r24	; 35
     ffa:	8e e0       	ldi	r24, 0x0E	; 14
     ffc:	85 bd       	out	0x25, r24	; 37
     ffe:	89 b7       	in	r24, 0x39	; 57
    1000:	80 68       	ori	r24, 0x80	; 128
    1002:	89 bf       	out	0x39, r24	; 57
    1004:	88 b7       	in	r24, 0x38	; 56
    1006:	80 6c       	ori	r24, 0xC0	; 192
    1008:	88 bf       	out	0x38, r24	; 56
    100a:	08 95       	ret

0000100c <ADC_init>:
    100c:	17 b8       	out	0x07, r1	; 7
    100e:	87 e8       	ldi	r24, 0x87	; 135
    1010:	86 b9       	out	0x06, r24	; 6
    1012:	08 95       	ret

00001014 <display_result>:

void display_result(void)
{
    1014:	df 92       	push	r13
    1016:	ef 92       	push	r14
    1018:	ff 92       	push	r15
    101a:	0f 93       	push	r16
    101c:	1f 93       	push	r17
    101e:	cf 93       	push	r28
    1020:	df 93       	push	r29
    1022:	00 d0       	rcall	.+0      	; 0x1024 <display_result+0x10>
    1024:	00 d0       	rcall	.+0      	; 0x1026 <display_result+0x12>
    1026:	cd b7       	in	r28, 0x3d	; 61
    1028:	de b7       	in	r29, 0x3e	; 62
		int16_t code_temp = 0;

		switch(mode)
    102a:	80 91 6e 00 	lds	r24, 0x006E	; 0x80006e <mode>
    102e:	81 30       	cpi	r24, 0x01	; 1
    1030:	49 f0       	breq	.+18     	; 0x1044 <display_result+0x30>
    1032:	18 f0       	brcs	.+6      	; 0x103a <display_result+0x26>
    1034:	82 30       	cpi	r24, 0x02	; 2
    1036:	59 f0       	breq	.+22     	; 0x104e <display_result+0x3a>
    1038:	0f c0       	rjmp	.+30     	; 0x1058 <display_result+0x44>
		{
			case 0:
			{
				code_temp = C_temp_code;
    103a:	e0 90 7a 00 	lds	r14, 0x007A	; 0x80007a <C_temp_code>
    103e:	f0 90 7b 00 	lds	r15, 0x007B	; 0x80007b <C_temp_code+0x1>
				break;
    1042:	0c c0       	rjmp	.+24     	; 0x105c <display_result+0x48>
			}
			case 1: 
			{
				code_temp = K_temp_code;
    1044:	e0 90 78 00 	lds	r14, 0x0078	; 0x800078 <K_temp_code>
    1048:	f0 90 79 00 	lds	r15, 0x0079	; 0x800079 <K_temp_code+0x1>
				break;				
    104c:	07 c0       	rjmp	.+14     	; 0x105c <display_result+0x48>
			}
			case 2:
			{
				code_temp = F_temp_code;
    104e:	e0 90 76 00 	lds	r14, 0x0076	; 0x800076 <F_temp_code>
    1052:	f0 90 77 00 	lds	r15, 0x0077	; 0x800077 <F_temp_code+0x1>
				break;
    1056:	02 c0       	rjmp	.+4      	; 0x105c <display_result+0x48>
	glcd_puts("F",97,5,0,2,1);
}

void display_result(void)
{
		int16_t code_temp = 0;
    1058:	e1 2c       	mov	r14, r1
    105a:	f1 2c       	mov	r15, r1
				code_temp = F_temp_code;
				break;
			}
		}
		
		if (code_temp < 0)
    105c:	ff 20       	and	r15, r15
    105e:	74 f4       	brge	.+28     	; 0x107c <display_result+0x68>
		{
			glcd_putchar('-', base+8*3, 1, 1, 1);
    1060:	01 e0       	ldi	r16, 0x01	; 1
    1062:	21 e0       	ldi	r18, 0x01	; 1
    1064:	41 e0       	ldi	r20, 0x01	; 1
    1066:	50 e0       	ldi	r21, 0x00	; 0
    1068:	6c e2       	ldi	r22, 0x2C	; 44
    106a:	70 e0       	ldi	r23, 0x00	; 0
    106c:	8d e2       	ldi	r24, 0x2D	; 45
    106e:	0e 94 26 06 	call	0xc4c	; 0xc4c <glcd_putchar>
			code_temp = -code_temp;
    1072:	f1 94       	neg	r15
    1074:	e1 94       	neg	r14
    1076:	f1 08       	sbc	r15, r1
	glcd_puts("F",97,5,0,2,1);
}

void display_result(void)
{
		int16_t code_temp = 0;
    1078:	24 e0       	ldi	r18, 0x04	; 4
    107a:	1a c0       	rjmp	.+52     	; 0x10b0 <display_result+0x9c>
			glcd_putchar('-', base+8*3, 1, 1, 1);
			code_temp = -code_temp;
		}
		else
		{
			glcd_putchar(' ', base+8*3, 1, 1, 1);
    107c:	01 e0       	ldi	r16, 0x01	; 1
    107e:	21 e0       	ldi	r18, 0x01	; 1
    1080:	41 e0       	ldi	r20, 0x01	; 1
    1082:	50 e0       	ldi	r21, 0x00	; 0
    1084:	6c e2       	ldi	r22, 0x2C	; 44
    1086:	70 e0       	ldi	r23, 0x00	; 0
    1088:	80 e2       	ldi	r24, 0x20	; 32
    108a:	0e 94 26 06 	call	0xc4c	; 0xc4c <glcd_putchar>
    108e:	f4 cf       	rjmp	.-24     	; 0x1078 <display_result+0x64>
		}
		
		uint8_t nums[4];
		for (uint8_t i = 4; i > 0; --i) //преобразуем число в массив. в ячейке [0] лежит старший разряд
		{
			nums[i] = code_temp % 10 + 48;
    1090:	c7 01       	movw	r24, r14
    1092:	6a e0       	ldi	r22, 0x0A	; 10
    1094:	70 e0       	ldi	r23, 0x00	; 0
    1096:	0e 94 4e 0b 	call	0x169c	; 0x169c <__divmodhi4>
    109a:	e1 e0       	ldi	r30, 0x01	; 1
    109c:	f0 e0       	ldi	r31, 0x00	; 0
    109e:	ec 0f       	add	r30, r28
    10a0:	fd 1f       	adc	r31, r29
    10a2:	e2 0f       	add	r30, r18
    10a4:	f1 1d       	adc	r31, r1
    10a6:	80 5d       	subi	r24, 0xD0	; 208
    10a8:	80 83       	st	Z, r24
			code_temp = code_temp / 10;
    10aa:	e6 2e       	mov	r14, r22
    10ac:	f7 2e       	mov	r15, r23
		{
			glcd_putchar(' ', base+8*3, 1, 1, 1);
		}
		
		uint8_t nums[4];
		for (uint8_t i = 4; i > 0; --i) //преобразуем число в массив. в ячейке [0] лежит старший разряд
    10ae:	21 50       	subi	r18, 0x01	; 1
    10b0:	21 11       	cpse	r18, r1
    10b2:	ee cf       	rjmp	.-36     	; 0x1090 <display_result+0x7c>
    10b4:	f1 2c       	mov	r15, r1
    10b6:	0a c0       	rjmp	.+20     	; 0x10cc <display_result+0xb8>
		
		uint8_t cursor = 4;//текущая координата виртуального курсора
		uint8_t count = 0; //количество незначащих разрядов
		while(count < 2)
		{
			if (nums[count]== '0')
    10b8:	e1 e0       	ldi	r30, 0x01	; 1
    10ba:	f0 e0       	ldi	r31, 0x00	; 0
    10bc:	ec 0f       	add	r30, r28
    10be:	fd 1f       	adc	r31, r29
    10c0:	ef 0d       	add	r30, r15
    10c2:	f1 1d       	adc	r31, r1
    10c4:	80 81       	ld	r24, Z
    10c6:	80 33       	cpi	r24, 0x30	; 48
    10c8:	21 f5       	brne	.+72     	; 0x1112 <display_result+0xfe>
			{
				++count;				//увеличиваем счетчик до первого ненулевого значения или до двух
    10ca:	f3 94       	inc	r15
			code_temp = code_temp / 10;
		}
		
		uint8_t cursor = 4;//текущая координата виртуального курсора
		uint8_t count = 0; //количество незначащих разрядов
		while(count < 2)
    10cc:	81 e0       	ldi	r24, 0x01	; 1
    10ce:	8f 15       	cp	r24, r15
    10d0:	98 f7       	brcc	.-26     	; 0x10b8 <display_result+0xa4>
    10d2:	ef 2c       	mov	r14, r15
    10d4:	14 e0       	ldi	r17, 0x04	; 4
    10d6:	1f c0       	rjmp	.+62     	; 0x1116 <display_result+0x102>
			}
		}
		
		for (uint8_t i = count; i < 3; ++i)
		{
			glcd_putchar(nums[i], base+8*(cursor++), 1, 1, 1);
    10d8:	dd 24       	eor	r13, r13
    10da:	d3 94       	inc	r13
    10dc:	d1 0e       	add	r13, r17
    10de:	61 2f       	mov	r22, r17
    10e0:	70 e0       	ldi	r23, 0x00	; 0
    10e2:	66 0f       	add	r22, r22
    10e4:	77 1f       	adc	r23, r23
    10e6:	66 0f       	add	r22, r22
    10e8:	77 1f       	adc	r23, r23
    10ea:	66 0f       	add	r22, r22
    10ec:	77 1f       	adc	r23, r23
    10ee:	6c 5e       	subi	r22, 0xEC	; 236
    10f0:	7f 4f       	sbci	r23, 0xFF	; 255
    10f2:	e1 e0       	ldi	r30, 0x01	; 1
    10f4:	f0 e0       	ldi	r31, 0x00	; 0
    10f6:	ec 0f       	add	r30, r28
    10f8:	fd 1f       	adc	r31, r29
    10fa:	ee 0d       	add	r30, r14
    10fc:	f1 1d       	adc	r31, r1
    10fe:	01 e0       	ldi	r16, 0x01	; 1
    1100:	21 e0       	ldi	r18, 0x01	; 1
    1102:	41 e0       	ldi	r20, 0x01	; 1
    1104:	50 e0       	ldi	r21, 0x00	; 0
    1106:	80 81       	ld	r24, Z
    1108:	0e 94 26 06 	call	0xc4c	; 0xc4c <glcd_putchar>
			{
				break; 
			}
		}
		
		for (uint8_t i = count; i < 3; ++i)
    110c:	e3 94       	inc	r14
		{
			glcd_putchar(nums[i], base+8*(cursor++), 1, 1, 1);
    110e:	1d 2d       	mov	r17, r13
    1110:	02 c0       	rjmp	.+4      	; 0x1116 <display_result+0x102>
    1112:	ef 2c       	mov	r14, r15
    1114:	14 e0       	ldi	r17, 0x04	; 4
			{
				break; 
			}
		}
		
		for (uint8_t i = count; i < 3; ++i)
    1116:	82 e0       	ldi	r24, 0x02	; 2
    1118:	8e 15       	cp	r24, r14
    111a:	f0 f6       	brcc	.-68     	; 0x10d8 <display_result+0xc4>
		{
			glcd_putchar(nums[i], base+8*(cursor++), 1, 1, 1);
		}
		glcd_putchar('.', base + 8*(cursor++), 1, 1, 1);   //разделительная точка
    111c:	ee 24       	eor	r14, r14
    111e:	e3 94       	inc	r14
    1120:	e1 0e       	add	r14, r17
    1122:	61 2f       	mov	r22, r17
    1124:	70 e0       	ldi	r23, 0x00	; 0
    1126:	66 0f       	add	r22, r22
    1128:	77 1f       	adc	r23, r23
    112a:	66 0f       	add	r22, r22
    112c:	77 1f       	adc	r23, r23
    112e:	66 0f       	add	r22, r22
    1130:	77 1f       	adc	r23, r23
    1132:	6c 5e       	subi	r22, 0xEC	; 236
    1134:	7f 4f       	sbci	r23, 0xFF	; 255
    1136:	01 e0       	ldi	r16, 0x01	; 1
    1138:	21 e0       	ldi	r18, 0x01	; 1
    113a:	41 e0       	ldi	r20, 0x01	; 1
    113c:	50 e0       	ldi	r21, 0x00	; 0
    113e:	8e e2       	ldi	r24, 0x2E	; 46
    1140:	0e 94 26 06 	call	0xc4c	; 0xc4c <glcd_putchar>
		glcd_putchar(nums[4], base + 8*(cursor++), 1, 1, 1); 
    1144:	1e 5f       	subi	r17, 0xFE	; 254
    1146:	6e 2d       	mov	r22, r14
    1148:	70 e0       	ldi	r23, 0x00	; 0
    114a:	66 0f       	add	r22, r22
    114c:	77 1f       	adc	r23, r23
    114e:	66 0f       	add	r22, r22
    1150:	77 1f       	adc	r23, r23
    1152:	66 0f       	add	r22, r22
    1154:	77 1f       	adc	r23, r23
    1156:	6c 5e       	subi	r22, 0xEC	; 236
    1158:	7f 4f       	sbci	r23, 0xFF	; 255
    115a:	21 e0       	ldi	r18, 0x01	; 1
    115c:	41 e0       	ldi	r20, 0x01	; 1
    115e:	50 e0       	ldi	r21, 0x00	; 0
    1160:	8d 81       	ldd	r24, Y+5	; 0x05
    1162:	0e 94 26 06 	call	0xc4c	; 0xc4c <glcd_putchar>
		for (uint8_t i = 0; i < count; ++i)
    1166:	e1 2c       	mov	r14, r1
    1168:	16 c0       	rjmp	.+44     	; 0x1196 <display_result+0x182>
		{
			glcd_putchar(' ', base + 8*(cursor++), 1,1,1); //заполняем пробелами оставшиеся символы, если они есть
    116a:	dd 24       	eor	r13, r13
    116c:	d3 94       	inc	r13
    116e:	d1 0e       	add	r13, r17
    1170:	61 2f       	mov	r22, r17
    1172:	70 e0       	ldi	r23, 0x00	; 0
    1174:	66 0f       	add	r22, r22
    1176:	77 1f       	adc	r23, r23
    1178:	66 0f       	add	r22, r22
    117a:	77 1f       	adc	r23, r23
    117c:	66 0f       	add	r22, r22
    117e:	77 1f       	adc	r23, r23
    1180:	6c 5e       	subi	r22, 0xEC	; 236
    1182:	7f 4f       	sbci	r23, 0xFF	; 255
    1184:	01 e0       	ldi	r16, 0x01	; 1
    1186:	21 e0       	ldi	r18, 0x01	; 1
    1188:	41 e0       	ldi	r20, 0x01	; 1
    118a:	50 e0       	ldi	r21, 0x00	; 0
    118c:	80 e2       	ldi	r24, 0x20	; 32
    118e:	0e 94 26 06 	call	0xc4c	; 0xc4c <glcd_putchar>
		{
			glcd_putchar(nums[i], base+8*(cursor++), 1, 1, 1);
		}
		glcd_putchar('.', base + 8*(cursor++), 1, 1, 1);   //разделительная точка
		glcd_putchar(nums[4], base + 8*(cursor++), 1, 1, 1); 
		for (uint8_t i = 0; i < count; ++i)
    1192:	e3 94       	inc	r14
		{
			glcd_putchar(' ', base + 8*(cursor++), 1,1,1); //заполняем пробелами оставшиеся символы, если они есть
    1194:	1d 2d       	mov	r17, r13
		{
			glcd_putchar(nums[i], base+8*(cursor++), 1, 1, 1);
		}
		glcd_putchar('.', base + 8*(cursor++), 1, 1, 1);   //разделительная точка
		glcd_putchar(nums[4], base + 8*(cursor++), 1, 1, 1); 
		for (uint8_t i = 0; i < count; ++i)
    1196:	ef 14       	cp	r14, r15
    1198:	40 f3       	brcs	.-48     	; 0x116a <display_result+0x156>
		{
			glcd_putchar(' ', base + 8*(cursor++), 1,1,1); //заполняем пробелами оставшиеся символы, если они есть
		}
		
}
    119a:	0f 90       	pop	r0
    119c:	0f 90       	pop	r0
    119e:	0f 90       	pop	r0
    11a0:	0f 90       	pop	r0
    11a2:	df 91       	pop	r29
    11a4:	cf 91       	pop	r28
    11a6:	1f 91       	pop	r17
    11a8:	0f 91       	pop	r16
    11aa:	ff 90       	pop	r15
    11ac:	ef 90       	pop	r14
    11ae:	df 90       	pop	r13
    11b0:	08 95       	ret

000011b2 <scan_key>:


void scan_key(void)
{
	PORTA=0b00000100;       //
    11b2:	84 e0       	ldi	r24, 0x04	; 4
    11b4:	8b bb       	out	0x1b, r24	; 27
	#else
		//round up by default
		__ticks_dc = (uint32_t)(ceil(fabs(__tmp)));
	#endif

	__builtin_avr_delay_cycles(__ticks_dc);
    11b6:	8f e9       	ldi	r24, 0x9F	; 159
    11b8:	9f e0       	ldi	r25, 0x0F	; 15
    11ba:	01 97       	sbiw	r24, 0x01	; 1
    11bc:	f1 f7       	brne	.-4      	; 0x11ba <scan_key+0x8>
    11be:	00 c0       	rjmp	.+0      	; 0x11c0 <scan_key+0xe>
    11c0:	00 00       	nop
	_delay_ms(2);			// Задержка !!! (паразитная емкость должна зарядиться)
	ADMUX=0b00000000;		// Выбираем нулевой канал АЦП
    11c2:	17 b8       	out	0x07, r1	; 7
	ADCSRA|=(1<<ADSC);		// запускаем АЦП ( аналогично ADCSRA=((ADCSRA|0b01000000));
    11c4:	86 b1       	in	r24, 0x06	; 6
    11c6:	80 64       	ori	r24, 0x40	; 64
    11c8:	86 b9       	out	0x06, r24	; 6
	while ((ADCSRA&(1<<ADSC))!=0); //ожидаем конца преобразования АЦП
    11ca:	36 99       	sbic	0x06, 6	; 6
    11cc:	fe cf       	rjmp	.-4      	; 0x11ca <scan_key+0x18>
	// Отображаем координату на графическом дисплее
	uint16_t x_coordinate=ADC;
    11ce:	24 b1       	in	r18, 0x04	; 4
    11d0:	35 b1       	in	r19, 0x05	; 5
	PORTA=0b00001000;
    11d2:	88 e0       	ldi	r24, 0x08	; 8
    11d4:	8b bb       	out	0x1b, r24	; 27
    11d6:	8f e9       	ldi	r24, 0x9F	; 159
    11d8:	9f e0       	ldi	r25, 0x0F	; 15
    11da:	01 97       	sbiw	r24, 0x01	; 1
    11dc:	f1 f7       	brne	.-4      	; 0x11da <scan_key+0x28>
    11de:	00 c0       	rjmp	.+0      	; 0x11e0 <scan_key+0x2e>
    11e0:	00 00       	nop
	_delay_ms(2);
	ADMUX=0b00000001;
    11e2:	81 e0       	ldi	r24, 0x01	; 1
    11e4:	87 b9       	out	0x07, r24	; 7
	ADCSRA|=(1<<ADSC);		// запускаем АЦП ( аналогично ADCSRA=((ADCSRA|0b01000000));
    11e6:	86 b1       	in	r24, 0x06	; 6
    11e8:	80 64       	ori	r24, 0x40	; 64
    11ea:	86 b9       	out	0x06, r24	; 6
	while ((ADCSRA&(1<<ADSC))!=0); //ожидаем конца преобразования АЦП
    11ec:	36 99       	sbic	0x06, 6	; 6
    11ee:	fe cf       	rjmp	.-4      	; 0x11ec <scan_key+0x3a>
	// Отображаем координату на графическом дисплее
	uint16_t y_coordinate=ADC;
    11f0:	44 b1       	in	r20, 0x04	; 4
    11f2:	55 b1       	in	r21, 0x05	; 5
	if (((y_coordinate>190)&&(y_coordinate<370))&&((x_coordinate>80)&&(x_coordinate<260))&&(g_key_status==0))
    11f4:	ca 01       	movw	r24, r20
    11f6:	8f 5b       	subi	r24, 0xBF	; 191
    11f8:	91 09       	sbc	r25, r1
    11fa:	83 3b       	cpi	r24, 0xB3	; 179
    11fc:	91 05       	cpc	r25, r1
    11fe:	78 f4       	brcc	.+30     	; 0x121e <scan_key+0x6c>
    1200:	b9 01       	movw	r22, r18
    1202:	61 55       	subi	r22, 0x51	; 81
    1204:	71 09       	sbc	r23, r1
    1206:	63 3b       	cpi	r22, 0xB3	; 179
    1208:	71 05       	cpc	r23, r1
    120a:	48 f4       	brcc	.+18     	; 0x121e <scan_key+0x6c>
    120c:	60 91 6f 00 	lds	r22, 0x006F	; 0x80006f <g_key_status>
    1210:	61 11       	cpse	r22, r1
    1212:	05 c0       	rjmp	.+10     	; 0x121e <scan_key+0x6c>
	{
		g_key_status=0b11000000;
    1214:	60 ec       	ldi	r22, 0xC0	; 192
    1216:	60 93 6f 00 	sts	0x006F, r22	; 0x80006f <g_key_status>
		g_key=0;
    121a:	10 92 70 00 	sts	0x0070, r1	; 0x800070 <g_key>
	}
	if (((y_coordinate>190)&&(y_coordinate<370))&&((x_coordinate>330)&&(x_coordinate<490))&&(g_key_status==0))
    121e:	83 3b       	cpi	r24, 0xB3	; 179
    1220:	91 05       	cpc	r25, r1
    1222:	80 f4       	brcc	.+32     	; 0x1244 <scan_key+0x92>
    1224:	b9 01       	movw	r22, r18
    1226:	6b 54       	subi	r22, 0x4B	; 75
    1228:	71 40       	sbci	r23, 0x01	; 1
    122a:	6f 39       	cpi	r22, 0x9F	; 159
    122c:	71 05       	cpc	r23, r1
    122e:	50 f4       	brcc	.+20     	; 0x1244 <scan_key+0x92>
    1230:	60 91 6f 00 	lds	r22, 0x006F	; 0x80006f <g_key_status>
    1234:	61 11       	cpse	r22, r1
    1236:	06 c0       	rjmp	.+12     	; 0x1244 <scan_key+0x92>
	{
		g_key_status=0b11000000;
    1238:	60 ec       	ldi	r22, 0xC0	; 192
    123a:	60 93 6f 00 	sts	0x006F, r22	; 0x80006f <g_key_status>
		g_key=1;
    123e:	61 e0       	ldi	r22, 0x01	; 1
    1240:	60 93 70 00 	sts	0x0070, r22	; 0x800070 <g_key>
	}
	if (((y_coordinate>190)&&(y_coordinate<370))&&((x_coordinate>565)&&(x_coordinate<730))&&(g_key_status==0))
    1244:	83 3b       	cpi	r24, 0xB3	; 179
    1246:	91 05       	cpc	r25, r1
    1248:	80 f4       	brcc	.+32     	; 0x126a <scan_key+0xb8>
    124a:	c9 01       	movw	r24, r18
    124c:	86 53       	subi	r24, 0x36	; 54
    124e:	92 40       	sbci	r25, 0x02	; 2
    1250:	84 3a       	cpi	r24, 0xA4	; 164
    1252:	91 05       	cpc	r25, r1
    1254:	50 f4       	brcc	.+20     	; 0x126a <scan_key+0xb8>
    1256:	80 91 6f 00 	lds	r24, 0x006F	; 0x80006f <g_key_status>
    125a:	81 11       	cpse	r24, r1
    125c:	06 c0       	rjmp	.+12     	; 0x126a <scan_key+0xb8>
	{
		g_key_status=0b11000000;
    125e:	80 ec       	ldi	r24, 0xC0	; 192
    1260:	80 93 6f 00 	sts	0x006F, r24	; 0x80006f <g_key_status>
		g_key=2;
    1264:	82 e0       	ldi	r24, 0x02	; 2
    1266:	80 93 70 00 	sts	0x0070, r24	; 0x800070 <g_key>
	}
	if (((y_coordinate<20)&&(x_coordinate<20))&&(g_key_status&0b01000000)!=0){
    126a:	44 31       	cpi	r20, 0x14	; 20
    126c:	51 05       	cpc	r21, r1
    126e:	50 f4       	brcc	.+20     	; 0x1284 <scan_key+0xd2>
    1270:	24 31       	cpi	r18, 0x14	; 20
    1272:	31 05       	cpc	r19, r1
    1274:	38 f4       	brcc	.+14     	; 0x1284 <scan_key+0xd2>
    1276:	80 91 6f 00 	lds	r24, 0x006F	; 0x80006f <g_key_status>
    127a:	86 ff       	sbrs	r24, 6
    127c:	03 c0       	rjmp	.+6      	; 0x1284 <scan_key+0xd2>
		g_key_status&=0b10000000;
    127e:	80 78       	andi	r24, 0x80	; 128
    1280:	80 93 6f 00 	sts	0x006F, r24	; 0x80006f <g_key_status>
    1284:	08 95       	ret

00001286 <main>:
void timer_init(void);
void ADC_init(void);
void scan_key(void);
int main(void)
{
    asm("cli");
    1286:	f8 94       	cli
	/* Replace with your application code */
	//InitModBus();
	IO_init();
    1288:	0e 94 e5 07 	call	0xfca	; 0xfca <IO_init>
	timer_init();
    128c:	0e 94 fa 07 	call	0xff4	; 0xff4 <timer_init>
	ADC_init();
    1290:	0e 94 06 08 	call	0x100c	; 0x100c <ADC_init>
	InitModBus();
    1294:	0e 94 c3 09 	call	0x1386	; 0x1386 <InitModBus>
	
	asm("sei");
    1298:	78 94       	sei
    while (1) 
    {
		if(upd_flag)
    129a:	80 91 6d 00 	lds	r24, 0x006D	; 0x80006d <upd_flag>
    129e:	88 23       	and	r24, r24
    12a0:	31 f0       	breq	.+12     	; 0x12ae <main+0x28>
		{
			scan_key();
    12a2:	0e 94 d9 08 	call	0x11b2	; 0x11b2 <scan_key>
			display_result();
    12a6:	0e 94 0a 08 	call	0x1014	; 0x1014 <display_result>
			upd_flag = 0;
    12aa:	10 92 6d 00 	sts	0x006D, r1	; 0x80006d <upd_flag>
		}
		
		if ((g_key_status &0b10000000) != 0)
    12ae:	80 91 6f 00 	lds	r24, 0x006F	; 0x80006f <g_key_status>
    12b2:	88 23       	and	r24, r24
    12b4:	0c f0       	brlt	.+2      	; 0x12b8 <main+0x32>
    12b6:	4c c0       	rjmp	.+152    	; 0x1350 <main+0xca>
		{
			g_key_status &= 0b01000000;
    12b8:	80 74       	andi	r24, 0x40	; 64
    12ba:	80 93 6f 00 	sts	0x006F, r24	; 0x80006f <g_key_status>
			switch (g_key)
    12be:	80 91 70 00 	lds	r24, 0x0070	; 0x800070 <g_key>
    12c2:	81 30       	cpi	r24, 0x01	; 1
    12c4:	d1 f0       	breq	.+52     	; 0x12fa <main+0x74>
    12c6:	18 f0       	brcs	.+6      	; 0x12ce <main+0x48>
    12c8:	82 30       	cpi	r24, 0x02	; 2
    12ca:	59 f1       	breq	.+86     	; 0x1322 <main+0x9c>
    12cc:	41 c0       	rjmp	.+130    	; 0x1350 <main+0xca>
			{
				case 0:
				{
					mode = 0;
    12ce:	10 92 6e 00 	sts	0x006E, r1	; 0x80006e <mode>
					glcd_putchar((176),base+8*10,1,2,1); //символ градусов
    12d2:	01 e0       	ldi	r16, 0x01	; 1
    12d4:	22 e0       	ldi	r18, 0x02	; 2
    12d6:	41 e0       	ldi	r20, 0x01	; 1
    12d8:	50 e0       	ldi	r21, 0x00	; 0
    12da:	64 e6       	ldi	r22, 0x64	; 100
    12dc:	70 e0       	ldi	r23, 0x00	; 0
    12de:	80 eb       	ldi	r24, 0xB0	; 176
    12e0:	0e 94 26 06 	call	0xc4c	; 0xc4c <glcd_putchar>
					glcd_puts("C",base+8*11,1,0,1,1);
    12e4:	ee 24       	eor	r14, r14
    12e6:	e3 94       	inc	r14
    12e8:	20 e0       	ldi	r18, 0x00	; 0
    12ea:	41 e0       	ldi	r20, 0x01	; 1
    12ec:	50 e0       	ldi	r21, 0x00	; 0
    12ee:	6c e6       	ldi	r22, 0x6C	; 108
    12f0:	70 e0       	ldi	r23, 0x00	; 0
    12f2:	85 e6       	ldi	r24, 0x65	; 101
    12f4:	90 e0       	ldi	r25, 0x00	; 0
    12f6:	0e 94 d0 06 	call	0xda0	; 0xda0 <glcd_puts>
				}
				case 1:
				{
					mode = 1;
    12fa:	81 e0       	ldi	r24, 0x01	; 1
    12fc:	80 93 6e 00 	sts	0x006E, r24	; 0x80006e <mode>
					glcd_putchar('K', base+8*10,1,1,1);
    1300:	01 e0       	ldi	r16, 0x01	; 1
    1302:	21 e0       	ldi	r18, 0x01	; 1
    1304:	41 e0       	ldi	r20, 0x01	; 1
    1306:	50 e0       	ldi	r21, 0x00	; 0
    1308:	64 e6       	ldi	r22, 0x64	; 100
    130a:	70 e0       	ldi	r23, 0x00	; 0
    130c:	8b e4       	ldi	r24, 0x4B	; 75
    130e:	0e 94 26 06 	call	0xc4c	; 0xc4c <glcd_putchar>
					glcd_putchar(' ', base+8*11,1,1,1);
    1312:	21 e0       	ldi	r18, 0x01	; 1
    1314:	41 e0       	ldi	r20, 0x01	; 1
    1316:	50 e0       	ldi	r21, 0x00	; 0
    1318:	6c e6       	ldi	r22, 0x6C	; 108
    131a:	70 e0       	ldi	r23, 0x00	; 0
    131c:	80 e2       	ldi	r24, 0x20	; 32
    131e:	0e 94 26 06 	call	0xc4c	; 0xc4c <glcd_putchar>
				}
				case 2:
				{
					mode = 2;
    1322:	82 e0       	ldi	r24, 0x02	; 2
    1324:	80 93 6e 00 	sts	0x006E, r24	; 0x80006e <mode>
					glcd_putchar((176),base+8*10,1,2,1); //символ градусов
    1328:	01 e0       	ldi	r16, 0x01	; 1
    132a:	22 e0       	ldi	r18, 0x02	; 2
    132c:	41 e0       	ldi	r20, 0x01	; 1
    132e:	50 e0       	ldi	r21, 0x00	; 0
    1330:	64 e6       	ldi	r22, 0x64	; 100
    1332:	70 e0       	ldi	r23, 0x00	; 0
    1334:	80 eb       	ldi	r24, 0xB0	; 176
    1336:	0e 94 26 06 	call	0xc4c	; 0xc4c <glcd_putchar>
					glcd_puts("F",base+8*11,1,0,1,1);
    133a:	ee 24       	eor	r14, r14
    133c:	e3 94       	inc	r14
    133e:	20 e0       	ldi	r18, 0x00	; 0
    1340:	41 e0       	ldi	r20, 0x01	; 1
    1342:	50 e0       	ldi	r21, 0x00	; 0
    1344:	6c e6       	ldi	r22, 0x6C	; 108
    1346:	70 e0       	ldi	r23, 0x00	; 0
    1348:	89 e6       	ldi	r24, 0x69	; 105
    134a:	90 e0       	ldi	r25, 0x00	; 0
    134c:	0e 94 d0 06 	call	0xda0	; 0xda0 <glcd_puts>
				}
			}
		}
		CheckModBus();
    1350:	0e 94 b8 0a 	call	0x1570	; 0x1570 <CheckModBus>
		
    }
    1354:	a2 cf       	rjmp	.-188    	; 0x129a <main+0x14>

00001356 <__vector_4>:

	
}

ISR(TIMER2_COMP_vect)
{
    1356:	1f 92       	push	r1
    1358:	0f 92       	push	r0
    135a:	0f b6       	in	r0, 0x3f	; 63
    135c:	0f 92       	push	r0
    135e:	11 24       	eor	r1, r1
    1360:	8f 93       	push	r24
	++TCI_counts;
    1362:	80 91 6c 00 	lds	r24, 0x006C	; 0x80006c <__data_end>
    1366:	8f 5f       	subi	r24, 0xFF	; 255
    1368:	80 93 6c 00 	sts	0x006C, r24	; 0x80006c <__data_end>
	
	if(TCI_counts == 10)
    136c:	8a 30       	cpi	r24, 0x0A	; 10
    136e:	29 f4       	brne	.+10     	; 0x137a <__vector_4+0x24>
	{
		TCI_counts = 0;
    1370:	10 92 6c 00 	sts	0x006C, r1	; 0x80006c <__data_end>
		upd_flag = 1;
    1374:	81 e0       	ldi	r24, 0x01	; 1
    1376:	80 93 6d 00 	sts	0x006D, r24	; 0x80006d <upd_flag>
	}
    137a:	8f 91       	pop	r24
    137c:	0f 90       	pop	r0
    137e:	0f be       	out	0x3f, r0	; 63
    1380:	0f 90       	pop	r0
    1382:	1f 90       	pop	r1
    1384:	18 95       	reti

00001386 <InitModBus>:
else
	{
	return ErrorMessage(0x03);//Значение, содержащееся в поле данных запроса, является недопустимой величиной
	}
return 0;
} //end Func06(void)
    1386:	10 bc       	out	0x20, r1	; 32
    1388:	83 e3       	ldi	r24, 0x33	; 51
    138a:	89 b9       	out	0x09, r24	; 9
    138c:	1b b8       	out	0x0b, r1	; 11
    138e:	88 e9       	ldi	r24, 0x98	; 152
    1390:	8a b9       	out	0x0a, r24	; 10
    1392:	86 e8       	ldi	r24, 0x86	; 134
    1394:	80 bd       	out	0x20, r24	; 32
    1396:	13 be       	out	0x33, r1	; 51
    1398:	12 be       	out	0x32, r1	; 50
    139a:	89 b7       	in	r24, 0x39	; 57
    139c:	81 60       	ori	r24, 0x01	; 1
    139e:	89 bf       	out	0x39, r24	; 57
    13a0:	08 95       	ret

000013a2 <GetCRC16>:
    13a2:	ac 01       	movw	r20, r24
    13a4:	20 e0       	ldi	r18, 0x00	; 0
    13a6:	8f ef       	ldi	r24, 0xFF	; 255
    13a8:	9f ef       	ldi	r25, 0xFF	; 255
    13aa:	1c c0       	rjmp	.+56     	; 0x13e4 <GetCRC16+0x42>
    13ac:	fa 01       	movw	r30, r20
    13ae:	e2 0f       	add	r30, r18
    13b0:	f1 1d       	adc	r31, r1
    13b2:	30 81       	ld	r19, Z
    13b4:	83 27       	eor	r24, r19
    13b6:	38 2f       	mov	r19, r24
    13b8:	32 95       	swap	r19
    13ba:	38 27       	eor	r19, r24
    13bc:	03 2e       	mov	r0, r19
    13be:	36 95       	lsr	r19
    13c0:	36 95       	lsr	r19
    13c2:	30 25       	eor	r19, r0
    13c4:	03 2e       	mov	r0, r19
    13c6:	36 95       	lsr	r19
    13c8:	30 25       	eor	r19, r0
    13ca:	37 70       	andi	r19, 0x07	; 7
    13cc:	08 2e       	mov	r0, r24
    13ce:	89 2f       	mov	r24, r25
    13d0:	36 95       	lsr	r19
    13d2:	07 94       	ror	r0
    13d4:	37 95       	ror	r19
    13d6:	90 2d       	mov	r25, r0
    13d8:	83 27       	eor	r24, r19
    13da:	06 94       	lsr	r0
    13dc:	37 95       	ror	r19
    13de:	90 25       	eor	r25, r0
    13e0:	83 27       	eor	r24, r19
    13e2:	2f 5f       	subi	r18, 0xFF	; 255
    13e4:	26 17       	cp	r18, r22
    13e6:	10 f3       	brcs	.-60     	; 0x13ac <GetCRC16+0xa>
    13e8:	08 95       	ret

000013ea <ErrorMessage>:
    13ea:	cf 93       	push	r28
    13ec:	df 93       	push	r29
    13ee:	90 91 a4 00 	lds	r25, 0x00A4	; 0x8000a4 <cmRcBuf0+0x1>
    13f2:	c8 e8       	ldi	r28, 0x88	; 136
    13f4:	d0 e0       	ldi	r29, 0x00	; 0
    13f6:	90 58       	subi	r25, 0x80	; 128
    13f8:	99 83       	std	Y+1, r25	; 0x01
    13fa:	8a 83       	std	Y+2, r24	; 0x02
    13fc:	63 e0       	ldi	r22, 0x03	; 3
    13fe:	ce 01       	movw	r24, r28
    1400:	0e 94 d1 09 	call	0x13a2	; 0x13a2 <GetCRC16>
    1404:	8b 83       	std	Y+3, r24	; 0x03
    1406:	9c 83       	std	Y+4, r25	; 0x04
    1408:	85 e0       	ldi	r24, 0x05	; 5
    140a:	df 91       	pop	r29
    140c:	cf 91       	pop	r28
    140e:	08 95       	ret

00001410 <Func04>:
    1410:	cf 93       	push	r28
    1412:	df 93       	push	r29
    1414:	e3 ea       	ldi	r30, 0xA3	; 163
    1416:	f0 e0       	ldi	r31, 0x00	; 0
    1418:	42 81       	ldd	r20, Z+2	; 0x02
    141a:	50 e0       	ldi	r21, 0x00	; 0
    141c:	54 2f       	mov	r21, r20
    141e:	44 27       	eor	r20, r20
    1420:	83 81       	ldd	r24, Z+3	; 0x03
    1422:	48 0f       	add	r20, r24
    1424:	51 1d       	adc	r21, r1
    1426:	24 81       	ldd	r18, Z+4	; 0x04
    1428:	30 e0       	ldi	r19, 0x00	; 0
    142a:	32 2f       	mov	r19, r18
    142c:	22 27       	eor	r18, r18
    142e:	85 81       	ldd	r24, Z+5	; 0x05
    1430:	28 0f       	add	r18, r24
    1432:	31 1d       	adc	r19, r1
    1434:	ca 01       	movw	r24, r20
    1436:	82 0f       	add	r24, r18
    1438:	93 1f       	adc	r25, r19
    143a:	07 97       	sbiw	r24, 0x07	; 7
    143c:	24 f0       	brlt	.+8      	; 0x1446 <Func04+0x36>
    143e:	82 e0       	ldi	r24, 0x02	; 2
    1440:	0e 94 f5 09 	call	0x13ea	; 0x13ea <ErrorMessage>
    1444:	4a c0       	rjmp	.+148    	; 0x14da <Func04+0xca>
    1446:	21 15       	cp	r18, r1
    1448:	31 05       	cpc	r19, r1
    144a:	09 f4       	brne	.+2      	; 0x144e <Func04+0x3e>
    144c:	45 c0       	rjmp	.+138    	; 0x14d8 <Func04+0xc8>
    144e:	e8 e8       	ldi	r30, 0x88	; 136
    1450:	f0 e0       	ldi	r31, 0x00	; 0
    1452:	84 e0       	ldi	r24, 0x04	; 4
    1454:	81 83       	std	Z+1, r24	; 0x01
    1456:	62 2f       	mov	r22, r18
    1458:	66 0f       	add	r22, r22
    145a:	62 83       	std	Z+2, r22	; 0x02
    145c:	70 e0       	ldi	r23, 0x00	; 0
    145e:	18 c0       	rjmp	.+48     	; 0x1490 <Func04+0x80>
    1460:	dc 01       	movw	r26, r24
    1462:	aa 0f       	add	r26, r26
    1464:	bb 1f       	adc	r27, r27
    1466:	fa 01       	movw	r30, r20
    1468:	e8 0f       	add	r30, r24
    146a:	f9 1f       	adc	r31, r25
    146c:	ee 0f       	add	r30, r30
    146e:	ff 1f       	adc	r31, r31
    1470:	e4 58       	subi	r30, 0x84	; 132
    1472:	ff 4f       	sbci	r31, 0xFF	; 255
    1474:	c0 81       	ld	r28, Z
    1476:	d1 81       	ldd	r29, Z+1	; 0x01
    1478:	fd 01       	movw	r30, r26
    147a:	e5 57       	subi	r30, 0x75	; 117
    147c:	ff 4f       	sbci	r31, 0xFF	; 255
    147e:	d0 83       	st	Z, r29
    1480:	fc 01       	movw	r30, r24
    1482:	32 96       	adiw	r30, 0x02	; 2
    1484:	ee 0f       	add	r30, r30
    1486:	ff 1f       	adc	r31, r31
    1488:	e8 57       	subi	r30, 0x78	; 120
    148a:	ff 4f       	sbci	r31, 0xFF	; 255
    148c:	c0 83       	st	Z, r28
    148e:	7f 5f       	subi	r23, 0xFF	; 255
    1490:	87 2f       	mov	r24, r23
    1492:	90 e0       	ldi	r25, 0x00	; 0
    1494:	82 17       	cp	r24, r18
    1496:	93 07       	cpc	r25, r19
    1498:	1c f3       	brlt	.-58     	; 0x1460 <Func04+0x50>
    149a:	6d 5f       	subi	r22, 0xFD	; 253
    149c:	88 e8       	ldi	r24, 0x88	; 136
    149e:	90 e0       	ldi	r25, 0x00	; 0
    14a0:	0e 94 d1 09 	call	0x13a2	; 0x13a2 <GetCRC16>
    14a4:	e3 ea       	ldi	r30, 0xA3	; 163
    14a6:	f0 e0       	ldi	r31, 0x00	; 0
    14a8:	24 81       	ldd	r18, Z+4	; 0x04
    14aa:	30 e0       	ldi	r19, 0x00	; 0
    14ac:	32 2f       	mov	r19, r18
    14ae:	22 27       	eor	r18, r18
    14b0:	45 81       	ldd	r20, Z+5	; 0x05
    14b2:	24 0f       	add	r18, r20
    14b4:	31 1d       	adc	r19, r1
    14b6:	f9 01       	movw	r30, r18
    14b8:	ee 0f       	add	r30, r30
    14ba:	ff 1f       	adc	r31, r31
    14bc:	e5 57       	subi	r30, 0x75	; 117
    14be:	ff 4f       	sbci	r31, 0xFF	; 255
    14c0:	80 83       	st	Z, r24
    14c2:	f9 01       	movw	r30, r18
    14c4:	32 96       	adiw	r30, 0x02	; 2
    14c6:	ee 0f       	add	r30, r30
    14c8:	ff 1f       	adc	r31, r31
    14ca:	e8 57       	subi	r30, 0x78	; 120
    14cc:	ff 4f       	sbci	r31, 0xFF	; 255
    14ce:	90 83       	st	Z, r25
    14d0:	82 2f       	mov	r24, r18
    14d2:	88 0f       	add	r24, r24
    14d4:	8b 5f       	subi	r24, 0xFB	; 251
    14d6:	01 c0       	rjmp	.+2      	; 0x14da <Func04+0xca>
    14d8:	80 e0       	ldi	r24, 0x00	; 0
    14da:	df 91       	pop	r29
    14dc:	cf 91       	pop	r28
    14de:	08 95       	ret

000014e0 <ModBus>:
    14e0:	90 91 a3 00 	lds	r25, 0x00A3	; 0x8000a3 <cmRcBuf0>
    14e4:	9a 30       	cpi	r25, 0x0A	; 10
    14e6:	09 f0       	breq	.+2      	; 0x14ea <ModBus+0xa>
    14e8:	3f c0       	rjmp	.+126    	; 0x1568 <ModBus+0x88>
    14ea:	68 2f       	mov	r22, r24
    14ec:	83 ea       	ldi	r24, 0xA3	; 163
    14ee:	90 e0       	ldi	r25, 0x00	; 0
    14f0:	0e 94 d1 09 	call	0x13a2	; 0x13a2 <GetCRC16>
    14f4:	89 2b       	or	r24, r25
    14f6:	d1 f5       	brne	.+116    	; 0x156c <ModBus+0x8c>
    14f8:	8a e0       	ldi	r24, 0x0A	; 10
    14fa:	80 93 88 00 	sts	0x0088, r24	; 0x800088 <cmTrBuf0>
    14fe:	81 e0       	ldi	r24, 0x01	; 1
    1500:	06 c0       	rjmp	.+12     	; 0x150e <ModBus+0x2e>
    1502:	e8 2f       	mov	r30, r24
    1504:	f0 e0       	ldi	r31, 0x00	; 0
    1506:	e8 57       	subi	r30, 0x78	; 120
    1508:	ff 4f       	sbci	r31, 0xFF	; 255
    150a:	10 82       	st	Z, r1
    150c:	8f 5f       	subi	r24, 0xFF	; 255
    150e:	89 31       	cpi	r24, 0x19	; 25
    1510:	c0 f3       	brcs	.-16     	; 0x1502 <ModBus+0x22>
    1512:	80 91 a4 00 	lds	r24, 0x00A4	; 0x8000a4 <cmRcBuf0+0x1>
    1516:	83 30       	cpi	r24, 0x03	; 3
    1518:	a1 f0       	breq	.+40     	; 0x1542 <ModBus+0x62>
    151a:	28 f4       	brcc	.+10     	; 0x1526 <ModBus+0x46>
    151c:	81 30       	cpi	r24, 0x01	; 1
    151e:	49 f0       	breq	.+18     	; 0x1532 <ModBus+0x52>
    1520:	82 30       	cpi	r24, 0x02	; 2
    1522:	59 f0       	breq	.+22     	; 0x153a <ModBus+0x5a>
    1524:	1d c0       	rjmp	.+58     	; 0x1560 <ModBus+0x80>
    1526:	85 30       	cpi	r24, 0x05	; 5
    1528:	99 f0       	breq	.+38     	; 0x1550 <ModBus+0x70>
    152a:	78 f0       	brcs	.+30     	; 0x154a <ModBus+0x6a>
    152c:	86 30       	cpi	r24, 0x06	; 6
    152e:	a1 f0       	breq	.+40     	; 0x1558 <ModBus+0x78>
    1530:	17 c0       	rjmp	.+46     	; 0x1560 <ModBus+0x80>
    1532:	81 e0       	ldi	r24, 0x01	; 1
    1534:	0e 94 f5 09 	call	0x13ea	; 0x13ea <ErrorMessage>
    1538:	08 95       	ret
    153a:	81 e0       	ldi	r24, 0x01	; 1
    153c:	0e 94 f5 09 	call	0x13ea	; 0x13ea <ErrorMessage>
    1540:	08 95       	ret
    1542:	81 e0       	ldi	r24, 0x01	; 1
    1544:	0e 94 f5 09 	call	0x13ea	; 0x13ea <ErrorMessage>
    1548:	08 95       	ret
    154a:	0e 94 08 0a 	call	0x1410	; 0x1410 <Func04>
    154e:	08 95       	ret
    1550:	81 e0       	ldi	r24, 0x01	; 1
    1552:	0e 94 f5 09 	call	0x13ea	; 0x13ea <ErrorMessage>
    1556:	08 95       	ret
    1558:	81 e0       	ldi	r24, 0x01	; 1
    155a:	0e 94 f5 09 	call	0x13ea	; 0x13ea <ErrorMessage>
    155e:	08 95       	ret
    1560:	81 e0       	ldi	r24, 0x01	; 1
    1562:	0e 94 f5 09 	call	0x13ea	; 0x13ea <ErrorMessage>
    1566:	08 95       	ret
    1568:	80 e0       	ldi	r24, 0x00	; 0
    156a:	08 95       	ret
    156c:	80 e0       	ldi	r24, 0x00	; 0
    156e:	08 95       	ret

00001570 <CheckModBus>:
    1570:	80 91 74 00 	lds	r24, 0x0074	; 0x800074 <bModBus>
    1574:	88 23       	and	r24, r24
    1576:	91 f0       	breq	.+36     	; 0x159c <CheckModBus+0x2c>
    1578:	80 91 bd 00 	lds	r24, 0x00BD	; 0x8000bd <cNumRcByte0>
    157c:	0e 94 70 0a 	call	0x14e0	; 0x14e0 <ModBus>
    1580:	80 93 a1 00 	sts	0x00A1, r24	; 0x8000a1 <cNumTrByte0>
    1584:	88 23       	and	r24, r24
    1586:	41 f0       	breq	.+16     	; 0x1598 <CheckModBus+0x28>
    1588:	10 92 bc 00 	sts	0x00BC, r1	; 0x8000bc <TrCount>
    158c:	8a b1       	in	r24, 0x0a	; 10
    158e:	88 60       	ori	r24, 0x08	; 8
    1590:	8a b9       	out	0x0a, r24	; 10
    1592:	8a b1       	in	r24, 0x0a	; 10
    1594:	80 62       	ori	r24, 0x20	; 32
    1596:	8a b9       	out	0x0a, r24	; 10
    1598:	10 92 74 00 	sts	0x0074, r1	; 0x800074 <bModBus>
    159c:	08 95       	ret

0000159e <__vector_13>:
//-----------------------------Прерывания-------------------------------

//прерывание по завершению получения данных 
//получение запроса от мастера
ISR(USART_RXC_vect) 
{
    159e:	1f 92       	push	r1
    15a0:	0f 92       	push	r0
    15a2:	0f b6       	in	r0, 0x3f	; 63
    15a4:	0f 92       	push	r0
    15a6:	11 24       	eor	r1, r1
    15a8:	8f 93       	push	r24
    15aa:	9f 93       	push	r25
    15ac:	ef 93       	push	r30
    15ae:	ff 93       	push	r31
char cTempUART;

cTempUART=UDR;
    15b0:	8c b1       	in	r24, 0x0c	; 12

if  (UCSRA&(1<<FE)) //FE-ошибка кадра   ***может не работать на других МК****
    15b2:	5c 9b       	sbis	0x0b, 4	; 11
    15b4:	03 c0       	rjmp	.+6      	; 0x15bc <__vector_13+0x1e>
	{
	UDR = 0xFE; 
    15b6:	8e ef       	ldi	r24, 0xFE	; 254
    15b8:	8c b9       	out	0x0c, r24	; 12
	return;
    15ba:	23 c0       	rjmp	.+70     	; 0x1602 <__vector_13+0x64>
	}   

if (!StartRec)//если это первый байт, то начинаем прием
    15bc:	90 91 75 00 	lds	r25, 0x0075	; 0x800075 <StartRec>
    15c0:	91 11       	cpse	r25, r1
    15c2:	0c c0       	rjmp	.+24     	; 0x15dc <__vector_13+0x3e>
	{
	StartRec=true;
    15c4:	91 e0       	ldi	r25, 0x01	; 1
    15c6:	90 93 75 00 	sts	0x0075, r25	; 0x800075 <StartRec>
	RcCount=0;
	cmRcBuf0[RcCount++]=cTempUART;
    15ca:	90 93 a2 00 	sts	0x00A2, r25	; 0x8000a2 <RcCount>
    15ce:	80 93 a3 00 	sts	0x00A3, r24	; 0x8000a3 <cmRcBuf0>
	StartTimer0();
    15d2:	84 e0       	ldi	r24, 0x04	; 4
    15d4:	83 bf       	out	0x33, r24	; 51
    15d6:	82 e8       	ldi	r24, 0x82	; 130
    15d8:	82 bf       	out	0x32, r24	; 50
    15da:	13 c0       	rjmp	.+38     	; 0x1602 <__vector_13+0x64>
	}
else  // (StartRec==0) //продолжаем прием
	{
    if (RcCount<MAX_LENGHT_REC_BUF) //если еще не конец буфера
    15dc:	e0 91 a2 00 	lds	r30, 0x00A2	; 0x8000a2 <RcCount>
    15e0:	e9 31       	cpi	r30, 0x19	; 25
    15e2:	48 f4       	brcc	.+18     	; 0x15f6 <__vector_13+0x58>
		{
		cmRcBuf0[RcCount++]=cTempUART;
    15e4:	91 e0       	ldi	r25, 0x01	; 1
    15e6:	9e 0f       	add	r25, r30
    15e8:	90 93 a2 00 	sts	0x00A2, r25	; 0x8000a2 <RcCount>
    15ec:	f0 e0       	ldi	r31, 0x00	; 0
    15ee:	ed 55       	subi	r30, 0x5D	; 93
    15f0:	ff 4f       	sbci	r31, 0xFF	; 255
    15f2:	80 83       	st	Z, r24
    15f4:	02 c0       	rjmp	.+4      	; 0x15fa <__vector_13+0x5c>
		}
	else //буфер переполнен
		{
		cmRcBuf0[MAX_LENGHT_REC_BUF-1]=cTempUART;
    15f6:	80 93 bb 00 	sts	0x00BB, r24	; 0x8000bb <cmRcBuf0+0x18>
		}
    StartTimer0();//перезапуск таймера
    15fa:	84 e0       	ldi	r24, 0x04	; 4
    15fc:	83 bf       	out	0x33, r24	; 51
    15fe:	82 e8       	ldi	r24, 0x82	; 130
    1600:	82 bf       	out	0x32, r24	; 50
	} //end else if (StartRec==0)
} //end ISR(USART_RXC_vect)
    1602:	ff 91       	pop	r31
    1604:	ef 91       	pop	r30
    1606:	9f 91       	pop	r25
    1608:	8f 91       	pop	r24
    160a:	0f 90       	pop	r0
    160c:	0f be       	out	0x3f, r0	; 63
    160e:	0f 90       	pop	r0
    1610:	1f 90       	pop	r1
    1612:	18 95       	reti

00001614 <__vector_14>:


//прерывание по опустошению регистра данных (UDR)
//отправка ответа
ISR(USART_UDRE_vect)
{
    1614:	1f 92       	push	r1
    1616:	0f 92       	push	r0
    1618:	0f b6       	in	r0, 0x3f	; 63
    161a:	0f 92       	push	r0
    161c:	11 24       	eor	r1, r1
    161e:	8f 93       	push	r24
    1620:	ef 93       	push	r30
    1622:	ff 93       	push	r31
if (TrCount<cNumTrByte0)
    1624:	e0 91 bc 00 	lds	r30, 0x00BC	; 0x8000bc <TrCount>
    1628:	80 91 a1 00 	lds	r24, 0x00A1	; 0x8000a1 <cNumTrByte0>
    162c:	e8 17       	cp	r30, r24
    162e:	58 f4       	brcc	.+22     	; 0x1646 <__vector_14+0x32>
	{
    UDR=cmTrBuf0[TrCount];
    1630:	f0 e0       	ldi	r31, 0x00	; 0
    1632:	e8 57       	subi	r30, 0x78	; 120
    1634:	ff 4f       	sbci	r31, 0xFF	; 255
    1636:	80 81       	ld	r24, Z
    1638:	8c b9       	out	0x0c, r24	; 12
    TrCount++;
    163a:	80 91 bc 00 	lds	r24, 0x00BC	; 0x8000bc <TrCount>
    163e:	8f 5f       	subi	r24, 0xFF	; 255
    1640:	80 93 bc 00 	sts	0x00BC, r24	; 0x8000bc <TrCount>
    1644:	08 c0       	rjmp	.+16     	; 0x1656 <__vector_14+0x42>
	} //end if
else
	{
    StopTrans();
    1646:	8a b1       	in	r24, 0x0a	; 10
    1648:	87 7f       	andi	r24, 0xF7	; 247
    164a:	8a b9       	out	0x0a, r24	; 10
    164c:	8a b1       	in	r24, 0x0a	; 10
    164e:	8f 7d       	andi	r24, 0xDF	; 223
    1650:	8a b9       	out	0x0a, r24	; 10
    TrCount=0;
    1652:	10 92 bc 00 	sts	0x00BC, r1	; 0x8000bc <TrCount>
	} //end else
}//end ISR(USART_UDRE_vect)
    1656:	ff 91       	pop	r31
    1658:	ef 91       	pop	r30
    165a:	8f 91       	pop	r24
    165c:	0f 90       	pop	r0
    165e:	0f be       	out	0x3f, r0	; 63
    1660:	0f 90       	pop	r0
    1662:	1f 90       	pop	r1
    1664:	18 95       	reti

00001666 <__vector_11>:


//прерывание таймера/счетчика 0 по переполнению
//проверка окончания приема посылки, тишина >=3,5 символа
ISR(TIMER0_OVF_vect)
{
    1666:	1f 92       	push	r1
    1668:	0f 92       	push	r0
    166a:	0f b6       	in	r0, 0x3f	; 63
    166c:	0f 92       	push	r0
    166e:	11 24       	eor	r1, r1
    1670:	8f 93       	push	r24
if (StartRec)
    1672:	80 91 75 00 	lds	r24, 0x0075	; 0x800075 <StartRec>
    1676:	88 23       	and	r24, r24
    1678:	59 f0       	breq	.+22     	; 0x1690 <__vector_11+0x2a>
	{
    StartRec=false; //посылка принята
    167a:	10 92 75 00 	sts	0x0075, r1	; 0x800075 <StartRec>
    cNumRcByte0=RcCount;  //кол-во принятых байт
    167e:	80 91 a2 00 	lds	r24, 0x00A2	; 0x8000a2 <RcCount>
    1682:	80 93 bd 00 	sts	0x00BD, r24	; 0x8000bd <cNumRcByte0>
	bModBus=true;//
    1686:	81 e0       	ldi	r24, 0x01	; 1
    1688:	80 93 74 00 	sts	0x0074, r24	; 0x800074 <bModBus>
    StopTimer0();//остановим таймер
    168c:	13 be       	out	0x33, r1	; 51
    168e:	12 be       	out	0x32, r1	; 50
	} //end if
}//end ISR(TIMER0_OVF_vect)
    1690:	8f 91       	pop	r24
    1692:	0f 90       	pop	r0
    1694:	0f be       	out	0x3f, r0	; 63
    1696:	0f 90       	pop	r0
    1698:	1f 90       	pop	r1
    169a:	18 95       	reti

0000169c <__divmodhi4>:
    169c:	97 fb       	bst	r25, 7
    169e:	07 2e       	mov	r0, r23
    16a0:	16 f4       	brtc	.+4      	; 0x16a6 <__divmodhi4+0xa>
    16a2:	00 94       	com	r0
    16a4:	07 d0       	rcall	.+14     	; 0x16b4 <__divmodhi4_neg1>
    16a6:	77 fd       	sbrc	r23, 7
    16a8:	09 d0       	rcall	.+18     	; 0x16bc <__divmodhi4_neg2>
    16aa:	0e 94 62 0b 	call	0x16c4	; 0x16c4 <__udivmodhi4>
    16ae:	07 fc       	sbrc	r0, 7
    16b0:	05 d0       	rcall	.+10     	; 0x16bc <__divmodhi4_neg2>
    16b2:	3e f4       	brtc	.+14     	; 0x16c2 <__divmodhi4_exit>

000016b4 <__divmodhi4_neg1>:
    16b4:	90 95       	com	r25
    16b6:	81 95       	neg	r24
    16b8:	9f 4f       	sbci	r25, 0xFF	; 255
    16ba:	08 95       	ret

000016bc <__divmodhi4_neg2>:
    16bc:	70 95       	com	r23
    16be:	61 95       	neg	r22
    16c0:	7f 4f       	sbci	r23, 0xFF	; 255

000016c2 <__divmodhi4_exit>:
    16c2:	08 95       	ret

000016c4 <__udivmodhi4>:
    16c4:	aa 1b       	sub	r26, r26
    16c6:	bb 1b       	sub	r27, r27
    16c8:	51 e1       	ldi	r21, 0x11	; 17
    16ca:	07 c0       	rjmp	.+14     	; 0x16da <__udivmodhi4_ep>

000016cc <__udivmodhi4_loop>:
    16cc:	aa 1f       	adc	r26, r26
    16ce:	bb 1f       	adc	r27, r27
    16d0:	a6 17       	cp	r26, r22
    16d2:	b7 07       	cpc	r27, r23
    16d4:	10 f0       	brcs	.+4      	; 0x16da <__udivmodhi4_ep>
    16d6:	a6 1b       	sub	r26, r22
    16d8:	b7 0b       	sbc	r27, r23

000016da <__udivmodhi4_ep>:
    16da:	88 1f       	adc	r24, r24
    16dc:	99 1f       	adc	r25, r25
    16de:	5a 95       	dec	r21
    16e0:	a9 f7       	brne	.-22     	; 0x16cc <__udivmodhi4_loop>
    16e2:	80 95       	com	r24
    16e4:	90 95       	com	r25
    16e6:	bc 01       	movw	r22, r24
    16e8:	cd 01       	movw	r24, r26
    16ea:	08 95       	ret

000016ec <_exit>:
    16ec:	f8 94       	cli

000016ee <__stop_program>:
    16ee:	ff cf       	rjmp	.-2      	; 0x16ee <__stop_program>
